
rtarget:     file format elf64-x86-64


Disassembly of section .init:

0000000000400c48 <_init>:
  400c48:	f3 0f 1e fa          	endbr64 
  400c4c:	48 83 ec 08          	sub    $0x8,%rsp
  400c50:	48 8b 05 99 43 20 00 	mov    0x204399(%rip),%rax        # 604ff0 <__gmon_start__>
  400c57:	48 85 c0             	test   %rax,%rax
  400c5a:	74 02                	je     400c5e <_init+0x16>
  400c5c:	ff d0                	callq  *%rax
  400c5e:	48 83 c4 08          	add    $0x8,%rsp
  400c62:	c3                   	retq   

Disassembly of section .plt:

0000000000400c70 <.plt>:
  400c70:	ff 35 92 43 20 00    	pushq  0x204392(%rip)        # 605008 <_GLOBAL_OFFSET_TABLE_+0x8>
  400c76:	ff 25 94 43 20 00    	jmpq   *0x204394(%rip)        # 605010 <_GLOBAL_OFFSET_TABLE_+0x10>
  400c7c:	0f 1f 40 00          	nopl   0x0(%rax)

0000000000400c80 <strcasecmp@plt>:
  400c80:	ff 25 92 43 20 00    	jmpq   *0x204392(%rip)        # 605018 <strcasecmp@GLIBC_2.2.5>
  400c86:	68 00 00 00 00       	pushq  $0x0
  400c8b:	e9 e0 ff ff ff       	jmpq   400c70 <.plt>

0000000000400c90 <__errno_location@plt>:
  400c90:	ff 25 8a 43 20 00    	jmpq   *0x20438a(%rip)        # 605020 <__errno_location@GLIBC_2.2.5>
  400c96:	68 01 00 00 00       	pushq  $0x1
  400c9b:	e9 d0 ff ff ff       	jmpq   400c70 <.plt>

0000000000400ca0 <srandom@plt>:
  400ca0:	ff 25 82 43 20 00    	jmpq   *0x204382(%rip)        # 605028 <srandom@GLIBC_2.2.5>
  400ca6:	68 02 00 00 00       	pushq  $0x2
  400cab:	e9 c0 ff ff ff       	jmpq   400c70 <.plt>

0000000000400cb0 <strncmp@plt>:
  400cb0:	ff 25 7a 43 20 00    	jmpq   *0x20437a(%rip)        # 605030 <strncmp@GLIBC_2.2.5>
  400cb6:	68 03 00 00 00       	pushq  $0x3
  400cbb:	e9 b0 ff ff ff       	jmpq   400c70 <.plt>

0000000000400cc0 <strcpy@plt>:
  400cc0:	ff 25 72 43 20 00    	jmpq   *0x204372(%rip)        # 605038 <strcpy@GLIBC_2.2.5>
  400cc6:	68 04 00 00 00       	pushq  $0x4
  400ccb:	e9 a0 ff ff ff       	jmpq   400c70 <.plt>

0000000000400cd0 <puts@plt>:
  400cd0:	ff 25 6a 43 20 00    	jmpq   *0x20436a(%rip)        # 605040 <puts@GLIBC_2.2.5>
  400cd6:	68 05 00 00 00       	pushq  $0x5
  400cdb:	e9 90 ff ff ff       	jmpq   400c70 <.plt>

0000000000400ce0 <write@plt>:
  400ce0:	ff 25 62 43 20 00    	jmpq   *0x204362(%rip)        # 605048 <write@GLIBC_2.2.5>
  400ce6:	68 06 00 00 00       	pushq  $0x6
  400ceb:	e9 80 ff ff ff       	jmpq   400c70 <.plt>

0000000000400cf0 <mmap@plt>:
  400cf0:	ff 25 5a 43 20 00    	jmpq   *0x20435a(%rip)        # 605050 <mmap@GLIBC_2.2.5>
  400cf6:	68 07 00 00 00       	pushq  $0x7
  400cfb:	e9 70 ff ff ff       	jmpq   400c70 <.plt>

0000000000400d00 <printf@plt>:
  400d00:	ff 25 52 43 20 00    	jmpq   *0x204352(%rip)        # 605058 <printf@GLIBC_2.2.5>
  400d06:	68 08 00 00 00       	pushq  $0x8
  400d0b:	e9 60 ff ff ff       	jmpq   400c70 <.plt>

0000000000400d10 <memset@plt>:
  400d10:	ff 25 4a 43 20 00    	jmpq   *0x20434a(%rip)        # 605060 <memset@GLIBC_2.2.5>
  400d16:	68 09 00 00 00       	pushq  $0x9
  400d1b:	e9 50 ff ff ff       	jmpq   400c70 <.plt>

0000000000400d20 <alarm@plt>:
  400d20:	ff 25 42 43 20 00    	jmpq   *0x204342(%rip)        # 605068 <alarm@GLIBC_2.2.5>
  400d26:	68 0a 00 00 00       	pushq  $0xa
  400d2b:	e9 40 ff ff ff       	jmpq   400c70 <.plt>

0000000000400d30 <close@plt>:
  400d30:	ff 25 3a 43 20 00    	jmpq   *0x20433a(%rip)        # 605070 <close@GLIBC_2.2.5>
  400d36:	68 0b 00 00 00       	pushq  $0xb
  400d3b:	e9 30 ff ff ff       	jmpq   400c70 <.plt>

0000000000400d40 <read@plt>:
  400d40:	ff 25 32 43 20 00    	jmpq   *0x204332(%rip)        # 605078 <read@GLIBC_2.2.5>
  400d46:	68 0c 00 00 00       	pushq  $0xc
  400d4b:	e9 20 ff ff ff       	jmpq   400c70 <.plt>

0000000000400d50 <signal@plt>:
  400d50:	ff 25 2a 43 20 00    	jmpq   *0x20432a(%rip)        # 605080 <signal@GLIBC_2.2.5>
  400d56:	68 0d 00 00 00       	pushq  $0xd
  400d5b:	e9 10 ff ff ff       	jmpq   400c70 <.plt>

0000000000400d60 <gethostbyname@plt>:
  400d60:	ff 25 22 43 20 00    	jmpq   *0x204322(%rip)        # 605088 <gethostbyname@GLIBC_2.2.5>
  400d66:	68 0e 00 00 00       	pushq  $0xe
  400d6b:	e9 00 ff ff ff       	jmpq   400c70 <.plt>

0000000000400d70 <fprintf@plt>:
  400d70:	ff 25 1a 43 20 00    	jmpq   *0x20431a(%rip)        # 605090 <fprintf@GLIBC_2.2.5>
  400d76:	68 0f 00 00 00       	pushq  $0xf
  400d7b:	e9 f0 fe ff ff       	jmpq   400c70 <.plt>

0000000000400d80 <strtol@plt>:
  400d80:	ff 25 12 43 20 00    	jmpq   *0x204312(%rip)        # 605098 <strtol@GLIBC_2.2.5>
  400d86:	68 10 00 00 00       	pushq  $0x10
  400d8b:	e9 e0 fe ff ff       	jmpq   400c70 <.plt>

0000000000400d90 <memcpy@plt>:
  400d90:	ff 25 0a 43 20 00    	jmpq   *0x20430a(%rip)        # 6050a0 <memcpy@GLIBC_2.14>
  400d96:	68 11 00 00 00       	pushq  $0x11
  400d9b:	e9 d0 fe ff ff       	jmpq   400c70 <.plt>

0000000000400da0 <time@plt>:
  400da0:	ff 25 02 43 20 00    	jmpq   *0x204302(%rip)        # 6050a8 <time@GLIBC_2.2.5>
  400da6:	68 12 00 00 00       	pushq  $0x12
  400dab:	e9 c0 fe ff ff       	jmpq   400c70 <.plt>

0000000000400db0 <random@plt>:
  400db0:	ff 25 fa 42 20 00    	jmpq   *0x2042fa(%rip)        # 6050b0 <random@GLIBC_2.2.5>
  400db6:	68 13 00 00 00       	pushq  $0x13
  400dbb:	e9 b0 fe ff ff       	jmpq   400c70 <.plt>

0000000000400dc0 <__isoc99_sscanf@plt>:
  400dc0:	ff 25 f2 42 20 00    	jmpq   *0x2042f2(%rip)        # 6050b8 <__isoc99_sscanf@GLIBC_2.7>
  400dc6:	68 14 00 00 00       	pushq  $0x14
  400dcb:	e9 a0 fe ff ff       	jmpq   400c70 <.plt>

0000000000400dd0 <munmap@plt>:
  400dd0:	ff 25 ea 42 20 00    	jmpq   *0x2042ea(%rip)        # 6050c0 <munmap@GLIBC_2.2.5>
  400dd6:	68 15 00 00 00       	pushq  $0x15
  400ddb:	e9 90 fe ff ff       	jmpq   400c70 <.plt>

0000000000400de0 <memmove@plt>:
  400de0:	ff 25 e2 42 20 00    	jmpq   *0x2042e2(%rip)        # 6050c8 <memmove@GLIBC_2.2.5>
  400de6:	68 16 00 00 00       	pushq  $0x16
  400deb:	e9 80 fe ff ff       	jmpq   400c70 <.plt>

0000000000400df0 <fopen@plt>:
  400df0:	ff 25 da 42 20 00    	jmpq   *0x2042da(%rip)        # 6050d0 <fopen@GLIBC_2.2.5>
  400df6:	68 17 00 00 00       	pushq  $0x17
  400dfb:	e9 70 fe ff ff       	jmpq   400c70 <.plt>

0000000000400e00 <getopt@plt>:
  400e00:	ff 25 d2 42 20 00    	jmpq   *0x2042d2(%rip)        # 6050d8 <getopt@GLIBC_2.2.5>
  400e06:	68 18 00 00 00       	pushq  $0x18
  400e0b:	e9 60 fe ff ff       	jmpq   400c70 <.plt>

0000000000400e10 <strtoul@plt>:
  400e10:	ff 25 ca 42 20 00    	jmpq   *0x2042ca(%rip)        # 6050e0 <strtoul@GLIBC_2.2.5>
  400e16:	68 19 00 00 00       	pushq  $0x19
  400e1b:	e9 50 fe ff ff       	jmpq   400c70 <.plt>

0000000000400e20 <gethostname@plt>:
  400e20:	ff 25 c2 42 20 00    	jmpq   *0x2042c2(%rip)        # 6050e8 <gethostname@GLIBC_2.2.5>
  400e26:	68 1a 00 00 00       	pushq  $0x1a
  400e2b:	e9 40 fe ff ff       	jmpq   400c70 <.plt>

0000000000400e30 <sprintf@plt>:
  400e30:	ff 25 ba 42 20 00    	jmpq   *0x2042ba(%rip)        # 6050f0 <sprintf@GLIBC_2.2.5>
  400e36:	68 1b 00 00 00       	pushq  $0x1b
  400e3b:	e9 30 fe ff ff       	jmpq   400c70 <.plt>

0000000000400e40 <exit@plt>:
  400e40:	ff 25 b2 42 20 00    	jmpq   *0x2042b2(%rip)        # 6050f8 <exit@GLIBC_2.2.5>
  400e46:	68 1c 00 00 00       	pushq  $0x1c
  400e4b:	e9 20 fe ff ff       	jmpq   400c70 <.plt>

0000000000400e50 <connect@plt>:
  400e50:	ff 25 aa 42 20 00    	jmpq   *0x2042aa(%rip)        # 605100 <connect@GLIBC_2.2.5>
  400e56:	68 1d 00 00 00       	pushq  $0x1d
  400e5b:	e9 10 fe ff ff       	jmpq   400c70 <.plt>

0000000000400e60 <getc@plt>:
  400e60:	ff 25 a2 42 20 00    	jmpq   *0x2042a2(%rip)        # 605108 <getc@GLIBC_2.2.5>
  400e66:	68 1e 00 00 00       	pushq  $0x1e
  400e6b:	e9 00 fe ff ff       	jmpq   400c70 <.plt>

0000000000400e70 <socket@plt>:
  400e70:	ff 25 9a 42 20 00    	jmpq   *0x20429a(%rip)        # 605110 <socket@GLIBC_2.2.5>
  400e76:	68 1f 00 00 00       	pushq  $0x1f
  400e7b:	e9 f0 fd ff ff       	jmpq   400c70 <.plt>

Disassembly of section .text:

0000000000400e80 <_start>:
  400e80:	f3 0f 1e fa          	endbr64 
  400e84:	31 ed                	xor    %ebp,%ebp
  400e86:	49 89 d1             	mov    %rdx,%r9
  400e89:	5e                   	pop    %rsi
  400e8a:	48 89 e2             	mov    %rsp,%rdx
  400e8d:	48 83 e4 f0          	and    $0xfffffffffffffff0,%rsp
  400e91:	50                   	push   %rax
  400e92:	54                   	push   %rsp
  400e93:	49 c7 c0 50 2d 40 00 	mov    $0x402d50,%r8
  400e9a:	48 c7 c1 e0 2c 40 00 	mov    $0x402ce0,%rcx
  400ea1:	48 c7 c7 2f 11 40 00 	mov    $0x40112f,%rdi
  400ea8:	ff 15 3a 41 20 00    	callq  *0x20413a(%rip)        # 604fe8 <__libc_start_main@GLIBC_2.2.5>
  400eae:	f4                   	hlt    

0000000000400eaf <.annobin_init.c>:
  400eaf:	90                   	nop

0000000000400eb0 <_dl_relocate_static_pie>:
  400eb0:	f3 0f 1e fa          	endbr64 
  400eb4:	c3                   	retq   

0000000000400eb5 <.annobin__dl_relocate_static_pie.end>:
  400eb5:	66 2e 0f 1f 84 00 00 	nopw   %cs:0x0(%rax,%rax,1)
  400ebc:	00 00 00 
  400ebf:	90                   	nop

0000000000400ec0 <deregister_tm_clones>:
  400ec0:	48 8d 3d c9 45 20 00 	lea    0x2045c9(%rip),%rdi        # 605490 <__TMC_END__>
  400ec7:	48 8d 05 c2 45 20 00 	lea    0x2045c2(%rip),%rax        # 605490 <__TMC_END__>
  400ece:	48 39 f8             	cmp    %rdi,%rax
  400ed1:	74 15                	je     400ee8 <deregister_tm_clones+0x28>
  400ed3:	48 8b 05 06 41 20 00 	mov    0x204106(%rip),%rax        # 604fe0 <_ITM_deregisterTMCloneTable>
  400eda:	48 85 c0             	test   %rax,%rax
  400edd:	74 09                	je     400ee8 <deregister_tm_clones+0x28>
  400edf:	ff e0                	jmpq   *%rax
  400ee1:	0f 1f 80 00 00 00 00 	nopl   0x0(%rax)
  400ee8:	c3                   	retq   
  400ee9:	0f 1f 80 00 00 00 00 	nopl   0x0(%rax)

0000000000400ef0 <register_tm_clones>:
  400ef0:	48 8d 3d 99 45 20 00 	lea    0x204599(%rip),%rdi        # 605490 <__TMC_END__>
  400ef7:	48 8d 35 92 45 20 00 	lea    0x204592(%rip),%rsi        # 605490 <__TMC_END__>
  400efe:	48 29 fe             	sub    %rdi,%rsi
  400f01:	48 c1 fe 03          	sar    $0x3,%rsi
  400f05:	48 89 f0             	mov    %rsi,%rax
  400f08:	48 c1 e8 3f          	shr    $0x3f,%rax
  400f0c:	48 01 c6             	add    %rax,%rsi
  400f0f:	48 d1 fe             	sar    %rsi
  400f12:	74 14                	je     400f28 <register_tm_clones+0x38>
  400f14:	48 8b 05 dd 40 20 00 	mov    0x2040dd(%rip),%rax        # 604ff8 <_ITM_registerTMCloneTable>
  400f1b:	48 85 c0             	test   %rax,%rax
  400f1e:	74 08                	je     400f28 <register_tm_clones+0x38>
  400f20:	ff e0                	jmpq   *%rax
  400f22:	66 0f 1f 44 00 00    	nopw   0x0(%rax,%rax,1)
  400f28:	c3                   	retq   
  400f29:	0f 1f 80 00 00 00 00 	nopl   0x0(%rax)

0000000000400f30 <__do_global_dtors_aux>:
  400f30:	f3 0f 1e fa          	endbr64 
  400f34:	80 3d 8d 45 20 00 00 	cmpb   $0x0,0x20458d(%rip)        # 6054c8 <completed.7294>
  400f3b:	75 13                	jne    400f50 <__do_global_dtors_aux+0x20>
  400f3d:	55                   	push   %rbp
  400f3e:	48 89 e5             	mov    %rsp,%rbp
  400f41:	e8 7a ff ff ff       	callq  400ec0 <deregister_tm_clones>
  400f46:	c6 05 7b 45 20 00 01 	movb   $0x1,0x20457b(%rip)        # 6054c8 <completed.7294>
  400f4d:	5d                   	pop    %rbp
  400f4e:	c3                   	retq   
  400f4f:	90                   	nop
  400f50:	c3                   	retq   
  400f51:	0f 1f 44 00 00       	nopl   0x0(%rax,%rax,1)
  400f56:	66 2e 0f 1f 84 00 00 	nopw   %cs:0x0(%rax,%rax,1)
  400f5d:	00 00 00 

0000000000400f60 <frame_dummy>:
  400f60:	f3 0f 1e fa          	endbr64 
  400f64:	eb 8a                	jmp    400ef0 <register_tm_clones>

0000000000400f66 <usage>:
  400f66:	48 83 ec 08          	sub    $0x8,%rsp
  400f6a:	48 89 fe             	mov    %rdi,%rsi
  400f6d:	83 3d 94 45 20 00 00 	cmpl   $0x0,0x204594(%rip)        # 605508 <is_checker>
  400f74:	74 41                	je     400fb7 <usage+0x51>
  400f76:	bf 80 2d 40 00       	mov    $0x402d80,%edi
  400f7b:	b8 00 00 00 00       	mov    $0x0,%eax
  400f80:	e8 7b fd ff ff       	callq  400d00 <printf@plt>
  400f85:	bf b8 2d 40 00       	mov    $0x402db8,%edi
  400f8a:	e8 41 fd ff ff       	callq  400cd0 <puts@plt>
  400f8f:	bf 30 2f 40 00       	mov    $0x402f30,%edi
  400f94:	e8 37 fd ff ff       	callq  400cd0 <puts@plt>
  400f99:	bf e0 2d 40 00       	mov    $0x402de0,%edi
  400f9e:	e8 2d fd ff ff       	callq  400cd0 <puts@plt>
  400fa3:	bf 4a 2f 40 00       	mov    $0x402f4a,%edi
  400fa8:	e8 23 fd ff ff       	callq  400cd0 <puts@plt>
  400fad:	bf 00 00 00 00       	mov    $0x0,%edi
  400fb2:	e8 89 fe ff ff       	callq  400e40 <exit@plt>
  400fb7:	bf 66 2f 40 00       	mov    $0x402f66,%edi
  400fbc:	b8 00 00 00 00       	mov    $0x0,%eax
  400fc1:	e8 3a fd ff ff       	callq  400d00 <printf@plt>
  400fc6:	bf 08 2e 40 00       	mov    $0x402e08,%edi
  400fcb:	e8 00 fd ff ff       	callq  400cd0 <puts@plt>
  400fd0:	bf 30 2e 40 00       	mov    $0x402e30,%edi
  400fd5:	e8 f6 fc ff ff       	callq  400cd0 <puts@plt>
  400fda:	bf 84 2f 40 00       	mov    $0x402f84,%edi
  400fdf:	e8 ec fc ff ff       	callq  400cd0 <puts@plt>
  400fe4:	eb c7                	jmp    400fad <usage+0x47>

0000000000400fe6 <initialize_target>:
  400fe6:	55                   	push   %rbp
  400fe7:	53                   	push   %rbx
  400fe8:	48 81 ec 08 21 00 00 	sub    $0x2108,%rsp
  400fef:	89 f5                	mov    %esi,%ebp
  400ff1:	89 3d 01 45 20 00    	mov    %edi,0x204501(%rip)        # 6054f8 <check_level>
  400ff7:	8b 3d 4b 41 20 00    	mov    0x20414b(%rip),%edi        # 605148 <target_id>
  400ffd:	e8 b7 1c 00 00       	callq  402cb9 <gencookie>
  401002:	89 05 fc 44 20 00    	mov    %eax,0x2044fc(%rip)        # 605504 <cookie>
  401008:	89 c7                	mov    %eax,%edi
  40100a:	e8 aa 1c 00 00       	callq  402cb9 <gencookie>
  40100f:	89 05 eb 44 20 00    	mov    %eax,0x2044eb(%rip)        # 605500 <authkey>
  401015:	8b 05 2d 41 20 00    	mov    0x20412d(%rip),%eax        # 605148 <target_id>
  40101b:	8d 78 01             	lea    0x1(%rax),%edi
  40101e:	e8 7d fc ff ff       	callq  400ca0 <srandom@plt>
  401023:	e8 88 fd ff ff       	callq  400db0 <random@plt>
  401028:	89 c7                	mov    %eax,%edi
  40102a:	e8 b8 02 00 00       	callq  4012e7 <scramble>
  40102f:	89 c3                	mov    %eax,%ebx
  401031:	85 ed                	test   %ebp,%ebp
  401033:	75 3d                	jne    401072 <initialize_target+0x8c>
  401035:	b8 00 00 00 00       	mov    $0x0,%eax
  40103a:	01 d8                	add    %ebx,%eax
  40103c:	0f b7 c0             	movzwl %ax,%eax
  40103f:	8d 04 c5 00 01 00 00 	lea    0x100(,%rax,8),%eax
  401046:	89 c0                	mov    %eax,%eax
  401048:	48 89 05 31 44 20 00 	mov    %rax,0x204431(%rip)        # 605480 <buf_offset>
  40104f:	c6 05 d2 50 20 00 72 	movb   $0x72,0x2050d2(%rip)        # 606128 <target_prefix>
  401056:	83 3d 2b 44 20 00 00 	cmpl   $0x0,0x20442b(%rip)        # 605488 <notify>
  40105d:	74 09                	je     401068 <initialize_target+0x82>
  40105f:	83 3d a2 44 20 00 00 	cmpl   $0x0,0x2044a2(%rip)        # 605508 <is_checker>
  401066:	74 22                	je     40108a <initialize_target+0xa4>
  401068:	48 81 c4 08 21 00 00 	add    $0x2108,%rsp
  40106f:	5b                   	pop    %rbx
  401070:	5d                   	pop    %rbp
  401071:	c3                   	retq   
  401072:	bf 00 00 00 00       	mov    $0x0,%edi
  401077:	e8 24 fd ff ff       	callq  400da0 <time@plt>
  40107c:	89 c7                	mov    %eax,%edi
  40107e:	e8 1d fc ff ff       	callq  400ca0 <srandom@plt>
  401083:	e8 28 fd ff ff       	callq  400db0 <random@plt>
  401088:	eb b0                	jmp    40103a <initialize_target+0x54>
  40108a:	be 00 01 00 00       	mov    $0x100,%esi
  40108f:	48 89 e7             	mov    %rsp,%rdi
  401092:	e8 89 fd ff ff       	callq  400e20 <gethostname@plt>
  401097:	89 c5                	mov    %eax,%ebp
  401099:	85 c0                	test   %eax,%eax
  40109b:	75 23                	jne    4010c0 <initialize_target+0xda>
  40109d:	89 c3                	mov    %eax,%ebx
  40109f:	48 63 c3             	movslq %ebx,%rax
  4010a2:	48 8b 3c c5 60 51 60 	mov    0x605160(,%rax,8),%rdi
  4010a9:	00 
  4010aa:	48 85 ff             	test   %rdi,%rdi
  4010ad:	74 2a                	je     4010d9 <initialize_target+0xf3>
  4010af:	48 89 e6             	mov    %rsp,%rsi
  4010b2:	e8 c9 fb ff ff       	callq  400c80 <strcasecmp@plt>
  4010b7:	85 c0                	test   %eax,%eax
  4010b9:	74 19                	je     4010d4 <initialize_target+0xee>
  4010bb:	83 c3 01             	add    $0x1,%ebx
  4010be:	eb df                	jmp    40109f <initialize_target+0xb9>
  4010c0:	bf 60 2e 40 00       	mov    $0x402e60,%edi
  4010c5:	e8 06 fc ff ff       	callq  400cd0 <puts@plt>
  4010ca:	bf 08 00 00 00       	mov    $0x8,%edi
  4010cf:	e8 6c fd ff ff       	callq  400e40 <exit@plt>
  4010d4:	bd 01 00 00 00       	mov    $0x1,%ebp
  4010d9:	85 ed                	test   %ebp,%ebp
  4010db:	74 36                	je     401113 <initialize_target+0x12d>
  4010dd:	48 8d bc 24 00 01 00 	lea    0x100(%rsp),%rdi
  4010e4:	00 
  4010e5:	e8 59 19 00 00       	callq  402a43 <init_driver>
  4010ea:	85 c0                	test   %eax,%eax
  4010ec:	0f 89 76 ff ff ff    	jns    401068 <initialize_target+0x82>
  4010f2:	48 8d b4 24 00 01 00 	lea    0x100(%rsp),%rsi
  4010f9:	00 
  4010fa:	bf d8 2e 40 00       	mov    $0x402ed8,%edi
  4010ff:	b8 00 00 00 00       	mov    $0x0,%eax
  401104:	e8 f7 fb ff ff       	callq  400d00 <printf@plt>
  401109:	bf 08 00 00 00       	mov    $0x8,%edi
  40110e:	e8 2d fd ff ff       	callq  400e40 <exit@plt>
  401113:	48 89 e6             	mov    %rsp,%rsi
  401116:	bf 98 2e 40 00       	mov    $0x402e98,%edi
  40111b:	b8 00 00 00 00       	mov    $0x0,%eax
  401120:	e8 db fb ff ff       	callq  400d00 <printf@plt>
  401125:	bf 08 00 00 00       	mov    $0x8,%edi
  40112a:	e8 11 fd ff ff       	callq  400e40 <exit@plt>

000000000040112f <main>:
  40112f:	41 56                	push   %r14
  401131:	41 55                	push   %r13
  401133:	41 54                	push   %r12
  401135:	55                   	push   %rbp
  401136:	53                   	push   %rbx
  401137:	89 fd                	mov    %edi,%ebp
  401139:	48 89 f3             	mov    %rsi,%rbx
  40113c:	be 48 1e 40 00       	mov    $0x401e48,%esi
  401141:	bf 0b 00 00 00       	mov    $0xb,%edi
  401146:	e8 05 fc ff ff       	callq  400d50 <signal@plt>
  40114b:	be fa 1d 40 00       	mov    $0x401dfa,%esi
  401150:	bf 07 00 00 00       	mov    $0x7,%edi
  401155:	e8 f6 fb ff ff       	callq  400d50 <signal@plt>
  40115a:	be 96 1e 40 00       	mov    $0x401e96,%esi
  40115f:	bf 04 00 00 00       	mov    $0x4,%edi
  401164:	e8 e7 fb ff ff       	callq  400d50 <signal@plt>
  401169:	83 3d 98 43 20 00 00 	cmpl   $0x0,0x204398(%rip)        # 605508 <is_checker>
  401170:	75 25                	jne    401197 <main+0x68>
  401172:	41 bc a5 2f 40 00    	mov    $0x402fa5,%r12d
  401178:	48 8b 05 21 43 20 00 	mov    0x204321(%rip),%rax        # 6054a0 <stdin@@GLIBC_2.2.5>
  40117f:	48 89 05 6a 43 20 00 	mov    %rax,0x20436a(%rip)        # 6054f0 <infile>
  401186:	41 bd 00 00 00 00    	mov    $0x0,%r13d
  40118c:	41 be 00 00 00 00    	mov    $0x0,%r14d
  401192:	e9 81 00 00 00       	jmpq   401218 <main+0xe9>
  401197:	be e4 1e 40 00       	mov    $0x401ee4,%esi
  40119c:	bf 0e 00 00 00       	mov    $0xe,%edi
  4011a1:	e8 aa fb ff ff       	callq  400d50 <signal@plt>
  4011a6:	bf 05 00 00 00       	mov    $0x5,%edi
  4011ab:	e8 70 fb ff ff       	callq  400d20 <alarm@plt>
  4011b0:	41 bc 9d 2f 40 00    	mov    $0x402f9d,%r12d
  4011b6:	eb c0                	jmp    401178 <main+0x49>
  4011b8:	48 8b 3b             	mov    (%rbx),%rdi
  4011bb:	e8 a6 fd ff ff       	callq  400f66 <usage>
  4011c0:	be 25 34 40 00       	mov    $0x403425,%esi
  4011c5:	48 8b 3d dc 42 20 00 	mov    0x2042dc(%rip),%rdi        # 6054a8 <optarg@@GLIBC_2.2.5>
  4011cc:	e8 1f fc ff ff       	callq  400df0 <fopen@plt>
  4011d1:	48 89 05 18 43 20 00 	mov    %rax,0x204318(%rip)        # 6054f0 <infile>
  4011d8:	48 85 c0             	test   %rax,%rax
  4011db:	75 3b                	jne    401218 <main+0xe9>
  4011dd:	48 8b 15 c4 42 20 00 	mov    0x2042c4(%rip),%rdx        # 6054a8 <optarg@@GLIBC_2.2.5>
  4011e4:	be aa 2f 40 00       	mov    $0x402faa,%esi
  4011e9:	48 8b 3d d0 42 20 00 	mov    0x2042d0(%rip),%rdi        # 6054c0 <stderr@@GLIBC_2.2.5>
  4011f0:	e8 7b fb ff ff       	callq  400d70 <fprintf@plt>
  4011f5:	b8 01 00 00 00       	mov    $0x1,%eax
  4011fa:	e9 c1 00 00 00       	jmpq   4012c0 <main+0x191>
  4011ff:	ba 10 00 00 00       	mov    $0x10,%edx
  401204:	be 00 00 00 00       	mov    $0x0,%esi
  401209:	48 8b 3d 98 42 20 00 	mov    0x204298(%rip),%rdi        # 6054a8 <optarg@@GLIBC_2.2.5>
  401210:	e8 fb fb ff ff       	callq  400e10 <strtoul@plt>
  401215:	41 89 c6             	mov    %eax,%r14d
  401218:	4c 89 e2             	mov    %r12,%rdx
  40121b:	48 89 de             	mov    %rbx,%rsi
  40121e:	89 ef                	mov    %ebp,%edi
  401220:	e8 db fb ff ff       	callq  400e00 <getopt@plt>
  401225:	3c ff                	cmp    $0xff,%al
  401227:	74 52                	je     40127b <main+0x14c>
  401229:	0f be f0             	movsbl %al,%esi
  40122c:	83 e8 61             	sub    $0x61,%eax
  40122f:	3c 10                	cmp    $0x10,%al
  401231:	77 31                	ja     401264 <main+0x135>
  401233:	0f b6 c0             	movzbl %al,%eax
  401236:	ff 24 c5 e8 2f 40 00 	jmpq   *0x402fe8(,%rax,8)
  40123d:	ba 0a 00 00 00       	mov    $0xa,%edx
  401242:	be 00 00 00 00       	mov    $0x0,%esi
  401247:	48 8b 3d 5a 42 20 00 	mov    0x20425a(%rip),%rdi        # 6054a8 <optarg@@GLIBC_2.2.5>
  40124e:	e8 2d fb ff ff       	callq  400d80 <strtol@plt>
  401253:	41 89 c5             	mov    %eax,%r13d
  401256:	eb c0                	jmp    401218 <main+0xe9>
  401258:	c7 05 26 42 20 00 00 	movl   $0x0,0x204226(%rip)        # 605488 <notify>
  40125f:	00 00 00 
  401262:	eb b4                	jmp    401218 <main+0xe9>
  401264:	bf c7 2f 40 00       	mov    $0x402fc7,%edi
  401269:	b8 00 00 00 00       	mov    $0x0,%eax
  40126e:	e8 8d fa ff ff       	callq  400d00 <printf@plt>
  401273:	48 8b 3b             	mov    (%rbx),%rdi
  401276:	e8 eb fc ff ff       	callq  400f66 <usage>
  40127b:	be 01 00 00 00       	mov    $0x1,%esi
  401280:	44 89 ef             	mov    %r13d,%edi
  401283:	e8 5e fd ff ff       	callq  400fe6 <initialize_target>
  401288:	83 3d 79 42 20 00 00 	cmpl   $0x0,0x204279(%rip)        # 605508 <is_checker>
  40128f:	74 09                	je     40129a <main+0x16b>
  401291:	44 39 35 68 42 20 00 	cmp    %r14d,0x204268(%rip)        # 605500 <authkey>
  401298:	75 2f                	jne    4012c9 <main+0x19a>
  40129a:	8b 35 64 42 20 00    	mov    0x204264(%rip),%esi        # 605504 <cookie>
  4012a0:	bf da 2f 40 00       	mov    $0x402fda,%edi
  4012a5:	b8 00 00 00 00       	mov    $0x0,%eax
  4012aa:	e8 51 fa ff ff       	callq  400d00 <printf@plt>
  4012af:	48 8b 3d ca 41 20 00 	mov    0x2041ca(%rip),%rdi        # 605480 <buf_offset>
  4012b6:	e8 77 0c 00 00       	callq  401f32 <launch>
  4012bb:	b8 00 00 00 00       	mov    $0x0,%eax
  4012c0:	5b                   	pop    %rbx
  4012c1:	5d                   	pop    %rbp
  4012c2:	41 5c                	pop    %r12
  4012c4:	41 5d                	pop    %r13
  4012c6:	41 5e                	pop    %r14
  4012c8:	c3                   	retq   
  4012c9:	44 89 f6             	mov    %r14d,%esi
  4012cc:	bf 00 2f 40 00       	mov    $0x402f00,%edi
  4012d1:	b8 00 00 00 00       	mov    $0x0,%eax
  4012d6:	e8 25 fa ff ff       	callq  400d00 <printf@plt>
  4012db:	b8 00 00 00 00       	mov    $0x0,%eax
  4012e0:	e8 19 08 00 00       	callq  401afe <check_fail>
  4012e5:	eb b3                	jmp    40129a <main+0x16b>

00000000004012e7 <scramble>:
  4012e7:	b8 00 00 00 00       	mov    $0x0,%eax
  4012ec:	83 f8 09             	cmp    $0x9,%eax
  4012ef:	77 13                	ja     401304 <scramble+0x1d>
  4012f1:	69 d0 a1 a9 00 00    	imul   $0xa9a1,%eax,%edx
  4012f7:	01 fa                	add    %edi,%edx
  4012f9:	89 c1                	mov    %eax,%ecx
  4012fb:	89 54 8c d0          	mov    %edx,-0x30(%rsp,%rcx,4)
  4012ff:	83 c0 01             	add    $0x1,%eax
  401302:	eb e8                	jmp    4012ec <scramble+0x5>
  401304:	8b 44 24 d0          	mov    -0x30(%rsp),%eax
  401308:	69 c0 30 5f 00 00    	imul   $0x5f30,%eax,%eax
  40130e:	89 44 24 d0          	mov    %eax,-0x30(%rsp)
  401312:	8b 44 24 e8          	mov    -0x18(%rsp),%eax
  401316:	69 c0 1c 6b 00 00    	imul   $0x6b1c,%eax,%eax
  40131c:	89 44 24 e8          	mov    %eax,-0x18(%rsp)
  401320:	8b 44 24 e8          	mov    -0x18(%rsp),%eax
  401324:	69 c0 44 9d 00 00    	imul   $0x9d44,%eax,%eax
  40132a:	89 44 24 e8          	mov    %eax,-0x18(%rsp)
  40132e:	8b 44 24 e8          	mov    -0x18(%rsp),%eax
  401332:	69 c0 b2 36 00 00    	imul   $0x36b2,%eax,%eax
  401338:	89 44 24 e8          	mov    %eax,-0x18(%rsp)
  40133c:	8b 44 24 e0          	mov    -0x20(%rsp),%eax
  401340:	69 c0 aa 52 00 00    	imul   $0x52aa,%eax,%eax
  401346:	89 44 24 e0          	mov    %eax,-0x20(%rsp)
  40134a:	8b 44 24 ec          	mov    -0x14(%rsp),%eax
  40134e:	69 c0 e1 27 00 00    	imul   $0x27e1,%eax,%eax
  401354:	89 44 24 ec          	mov    %eax,-0x14(%rsp)
  401358:	8b 44 24 f4          	mov    -0xc(%rsp),%eax
  40135c:	69 c0 21 a9 00 00    	imul   $0xa921,%eax,%eax
  401362:	89 44 24 f4          	mov    %eax,-0xc(%rsp)
  401366:	8b 44 24 d4          	mov    -0x2c(%rsp),%eax
  40136a:	69 c0 dd e7 00 00    	imul   $0xe7dd,%eax,%eax
  401370:	89 44 24 d4          	mov    %eax,-0x2c(%rsp)
  401374:	8b 44 24 e4          	mov    -0x1c(%rsp),%eax
  401378:	69 c0 3c 1c 00 00    	imul   $0x1c3c,%eax,%eax
  40137e:	89 44 24 e4          	mov    %eax,-0x1c(%rsp)
  401382:	8b 44 24 e8          	mov    -0x18(%rsp),%eax
  401386:	69 c0 ff 82 00 00    	imul   $0x82ff,%eax,%eax
  40138c:	89 44 24 e8          	mov    %eax,-0x18(%rsp)
  401390:	8b 44 24 d4          	mov    -0x2c(%rsp),%eax
  401394:	69 c0 0a 86 00 00    	imul   $0x860a,%eax,%eax
  40139a:	89 44 24 d4          	mov    %eax,-0x2c(%rsp)
  40139e:	8b 44 24 dc          	mov    -0x24(%rsp),%eax
  4013a2:	69 c0 19 80 00 00    	imul   $0x8019,%eax,%eax
  4013a8:	89 44 24 dc          	mov    %eax,-0x24(%rsp)
  4013ac:	8b 44 24 d4          	mov    -0x2c(%rsp),%eax
  4013b0:	69 c0 af d0 00 00    	imul   $0xd0af,%eax,%eax
  4013b6:	89 44 24 d4          	mov    %eax,-0x2c(%rsp)
  4013ba:	8b 44 24 e8          	mov    -0x18(%rsp),%eax
  4013be:	69 c0 35 32 00 00    	imul   $0x3235,%eax,%eax
  4013c4:	89 44 24 e8          	mov    %eax,-0x18(%rsp)
  4013c8:	8b 44 24 f0          	mov    -0x10(%rsp),%eax
  4013cc:	69 c0 40 28 00 00    	imul   $0x2840,%eax,%eax
  4013d2:	89 44 24 f0          	mov    %eax,-0x10(%rsp)
  4013d6:	8b 44 24 e0          	mov    -0x20(%rsp),%eax
  4013da:	69 c0 d7 c2 00 00    	imul   $0xc2d7,%eax,%eax
  4013e0:	89 44 24 e0          	mov    %eax,-0x20(%rsp)
  4013e4:	8b 44 24 d4          	mov    -0x2c(%rsp),%eax
  4013e8:	69 c0 da f3 00 00    	imul   $0xf3da,%eax,%eax
  4013ee:	89 44 24 d4          	mov    %eax,-0x2c(%rsp)
  4013f2:	8b 44 24 d8          	mov    -0x28(%rsp),%eax
  4013f6:	69 c0 0c a7 00 00    	imul   $0xa70c,%eax,%eax
  4013fc:	89 44 24 d8          	mov    %eax,-0x28(%rsp)
  401400:	8b 44 24 d4          	mov    -0x2c(%rsp),%eax
  401404:	69 c0 c3 d6 00 00    	imul   $0xd6c3,%eax,%eax
  40140a:	89 44 24 d4          	mov    %eax,-0x2c(%rsp)
  40140e:	8b 44 24 e8          	mov    -0x18(%rsp),%eax
  401412:	69 c0 7e 67 00 00    	imul   $0x677e,%eax,%eax
  401418:	89 44 24 e8          	mov    %eax,-0x18(%rsp)
  40141c:	8b 44 24 dc          	mov    -0x24(%rsp),%eax
  401420:	69 c0 05 a9 00 00    	imul   $0xa905,%eax,%eax
  401426:	89 44 24 dc          	mov    %eax,-0x24(%rsp)
  40142a:	8b 44 24 e4          	mov    -0x1c(%rsp),%eax
  40142e:	69 c0 31 cc 00 00    	imul   $0xcc31,%eax,%eax
  401434:	89 44 24 e4          	mov    %eax,-0x1c(%rsp)
  401438:	8b 44 24 d8          	mov    -0x28(%rsp),%eax
  40143c:	69 c0 72 23 00 00    	imul   $0x2372,%eax,%eax
  401442:	89 44 24 d8          	mov    %eax,-0x28(%rsp)
  401446:	8b 44 24 e4          	mov    -0x1c(%rsp),%eax
  40144a:	69 c0 8c d5 00 00    	imul   $0xd58c,%eax,%eax
  401450:	89 44 24 e4          	mov    %eax,-0x1c(%rsp)
  401454:	8b 44 24 e4          	mov    -0x1c(%rsp),%eax
  401458:	69 c0 70 84 00 00    	imul   $0x8470,%eax,%eax
  40145e:	89 44 24 e4          	mov    %eax,-0x1c(%rsp)
  401462:	8b 44 24 f0          	mov    -0x10(%rsp),%eax
  401466:	69 c0 83 c9 00 00    	imul   $0xc983,%eax,%eax
  40146c:	89 44 24 f0          	mov    %eax,-0x10(%rsp)
  401470:	8b 44 24 e0          	mov    -0x20(%rsp),%eax
  401474:	69 c0 1d 6e 00 00    	imul   $0x6e1d,%eax,%eax
  40147a:	89 44 24 e0          	mov    %eax,-0x20(%rsp)
  40147e:	8b 44 24 f0          	mov    -0x10(%rsp),%eax
  401482:	69 c0 87 b6 00 00    	imul   $0xb687,%eax,%eax
  401488:	89 44 24 f0          	mov    %eax,-0x10(%rsp)
  40148c:	8b 44 24 e8          	mov    -0x18(%rsp),%eax
  401490:	69 c0 a5 83 00 00    	imul   $0x83a5,%eax,%eax
  401496:	89 44 24 e8          	mov    %eax,-0x18(%rsp)
  40149a:	8b 44 24 dc          	mov    -0x24(%rsp),%eax
  40149e:	69 c0 02 58 00 00    	imul   $0x5802,%eax,%eax
  4014a4:	89 44 24 dc          	mov    %eax,-0x24(%rsp)
  4014a8:	8b 44 24 dc          	mov    -0x24(%rsp),%eax
  4014ac:	69 c0 34 5c 00 00    	imul   $0x5c34,%eax,%eax
  4014b2:	89 44 24 dc          	mov    %eax,-0x24(%rsp)
  4014b6:	8b 44 24 f0          	mov    -0x10(%rsp),%eax
  4014ba:	69 c0 55 33 00 00    	imul   $0x3355,%eax,%eax
  4014c0:	89 44 24 f0          	mov    %eax,-0x10(%rsp)
  4014c4:	8b 44 24 d0          	mov    -0x30(%rsp),%eax
  4014c8:	69 c0 cd 48 00 00    	imul   $0x48cd,%eax,%eax
  4014ce:	89 44 24 d0          	mov    %eax,-0x30(%rsp)
  4014d2:	8b 44 24 e0          	mov    -0x20(%rsp),%eax
  4014d6:	69 c0 2c e1 00 00    	imul   $0xe12c,%eax,%eax
  4014dc:	89 44 24 e0          	mov    %eax,-0x20(%rsp)
  4014e0:	8b 44 24 d0          	mov    -0x30(%rsp),%eax
  4014e4:	69 c0 21 b8 00 00    	imul   $0xb821,%eax,%eax
  4014ea:	89 44 24 d0          	mov    %eax,-0x30(%rsp)
  4014ee:	8b 44 24 f0          	mov    -0x10(%rsp),%eax
  4014f2:	69 c0 fe 48 00 00    	imul   $0x48fe,%eax,%eax
  4014f8:	89 44 24 f0          	mov    %eax,-0x10(%rsp)
  4014fc:	8b 44 24 dc          	mov    -0x24(%rsp),%eax
  401500:	69 c0 0a d8 00 00    	imul   $0xd80a,%eax,%eax
  401506:	89 44 24 dc          	mov    %eax,-0x24(%rsp)
  40150a:	8b 44 24 d0          	mov    -0x30(%rsp),%eax
  40150e:	69 c0 4d b3 00 00    	imul   $0xb34d,%eax,%eax
  401514:	89 44 24 d0          	mov    %eax,-0x30(%rsp)
  401518:	8b 44 24 e0          	mov    -0x20(%rsp),%eax
  40151c:	69 c0 3e c9 00 00    	imul   $0xc93e,%eax,%eax
  401522:	89 44 24 e0          	mov    %eax,-0x20(%rsp)
  401526:	8b 44 24 e0          	mov    -0x20(%rsp),%eax
  40152a:	69 c0 2b 3b 00 00    	imul   $0x3b2b,%eax,%eax
  401530:	89 44 24 e0          	mov    %eax,-0x20(%rsp)
  401534:	8b 44 24 d4          	mov    -0x2c(%rsp),%eax
  401538:	69 c0 65 e1 00 00    	imul   $0xe165,%eax,%eax
  40153e:	89 44 24 d4          	mov    %eax,-0x2c(%rsp)
  401542:	8b 44 24 d0          	mov    -0x30(%rsp),%eax
  401546:	69 c0 28 58 00 00    	imul   $0x5828,%eax,%eax
  40154c:	89 44 24 d0          	mov    %eax,-0x30(%rsp)
  401550:	8b 44 24 ec          	mov    -0x14(%rsp),%eax
  401554:	69 c0 4b 4e 00 00    	imul   $0x4e4b,%eax,%eax
  40155a:	89 44 24 ec          	mov    %eax,-0x14(%rsp)
  40155e:	8b 44 24 dc          	mov    -0x24(%rsp),%eax
  401562:	69 c0 4e 8e 00 00    	imul   $0x8e4e,%eax,%eax
  401568:	89 44 24 dc          	mov    %eax,-0x24(%rsp)
  40156c:	8b 44 24 e8          	mov    -0x18(%rsp),%eax
  401570:	69 c0 6c f7 00 00    	imul   $0xf76c,%eax,%eax
  401576:	89 44 24 e8          	mov    %eax,-0x18(%rsp)
  40157a:	8b 44 24 e0          	mov    -0x20(%rsp),%eax
  40157e:	69 c0 d6 7d 00 00    	imul   $0x7dd6,%eax,%eax
  401584:	89 44 24 e0          	mov    %eax,-0x20(%rsp)
  401588:	8b 44 24 e8          	mov    -0x18(%rsp),%eax
  40158c:	69 c0 2a 01 00 00    	imul   $0x12a,%eax,%eax
  401592:	89 44 24 e8          	mov    %eax,-0x18(%rsp)
  401596:	8b 44 24 ec          	mov    -0x14(%rsp),%eax
  40159a:	69 c0 af a3 00 00    	imul   $0xa3af,%eax,%eax
  4015a0:	89 44 24 ec          	mov    %eax,-0x14(%rsp)
  4015a4:	8b 44 24 e4          	mov    -0x1c(%rsp),%eax
  4015a8:	69 c0 8e 8b 00 00    	imul   $0x8b8e,%eax,%eax
  4015ae:	89 44 24 e4          	mov    %eax,-0x1c(%rsp)
  4015b2:	8b 44 24 ec          	mov    -0x14(%rsp),%eax
  4015b6:	69 c0 87 69 00 00    	imul   $0x6987,%eax,%eax
  4015bc:	89 44 24 ec          	mov    %eax,-0x14(%rsp)
  4015c0:	8b 44 24 d8          	mov    -0x28(%rsp),%eax
  4015c4:	69 c0 86 cd 00 00    	imul   $0xcd86,%eax,%eax
  4015ca:	89 44 24 d8          	mov    %eax,-0x28(%rsp)
  4015ce:	8b 44 24 e0          	mov    -0x20(%rsp),%eax
  4015d2:	69 c0 d5 a4 00 00    	imul   $0xa4d5,%eax,%eax
  4015d8:	89 44 24 e0          	mov    %eax,-0x20(%rsp)
  4015dc:	8b 44 24 d4          	mov    -0x2c(%rsp),%eax
  4015e0:	69 c0 b5 c7 00 00    	imul   $0xc7b5,%eax,%eax
  4015e6:	89 44 24 d4          	mov    %eax,-0x2c(%rsp)
  4015ea:	8b 44 24 dc          	mov    -0x24(%rsp),%eax
  4015ee:	69 c0 0c a1 00 00    	imul   $0xa10c,%eax,%eax
  4015f4:	89 44 24 dc          	mov    %eax,-0x24(%rsp)
  4015f8:	8b 44 24 e0          	mov    -0x20(%rsp),%eax
  4015fc:	69 c0 fd e0 00 00    	imul   $0xe0fd,%eax,%eax
  401602:	89 44 24 e0          	mov    %eax,-0x20(%rsp)
  401606:	8b 44 24 f0          	mov    -0x10(%rsp),%eax
  40160a:	69 c0 a1 de 00 00    	imul   $0xdea1,%eax,%eax
  401610:	89 44 24 f0          	mov    %eax,-0x10(%rsp)
  401614:	8b 44 24 e4          	mov    -0x1c(%rsp),%eax
  401618:	69 c0 e7 e0 00 00    	imul   $0xe0e7,%eax,%eax
  40161e:	89 44 24 e4          	mov    %eax,-0x1c(%rsp)
  401622:	8b 44 24 d8          	mov    -0x28(%rsp),%eax
  401626:	69 c0 e5 11 00 00    	imul   $0x11e5,%eax,%eax
  40162c:	89 44 24 d8          	mov    %eax,-0x28(%rsp)
  401630:	8b 44 24 ec          	mov    -0x14(%rsp),%eax
  401634:	69 c0 79 45 00 00    	imul   $0x4579,%eax,%eax
  40163a:	89 44 24 ec          	mov    %eax,-0x14(%rsp)
  40163e:	8b 44 24 d4          	mov    -0x2c(%rsp),%eax
  401642:	69 c0 23 01 00 00    	imul   $0x123,%eax,%eax
  401648:	89 44 24 d4          	mov    %eax,-0x2c(%rsp)
  40164c:	8b 44 24 e0          	mov    -0x20(%rsp),%eax
  401650:	69 c0 84 86 00 00    	imul   $0x8684,%eax,%eax
  401656:	89 44 24 e0          	mov    %eax,-0x20(%rsp)
  40165a:	8b 44 24 f0          	mov    -0x10(%rsp),%eax
  40165e:	69 c0 85 90 00 00    	imul   $0x9085,%eax,%eax
  401664:	89 44 24 f0          	mov    %eax,-0x10(%rsp)
  401668:	8b 44 24 d0          	mov    -0x30(%rsp),%eax
  40166c:	69 c0 26 30 00 00    	imul   $0x3026,%eax,%eax
  401672:	89 44 24 d0          	mov    %eax,-0x30(%rsp)
  401676:	8b 44 24 f0          	mov    -0x10(%rsp),%eax
  40167a:	69 c0 a5 d1 00 00    	imul   $0xd1a5,%eax,%eax
  401680:	89 44 24 f0          	mov    %eax,-0x10(%rsp)
  401684:	8b 44 24 f0          	mov    -0x10(%rsp),%eax
  401688:	69 c0 10 b9 00 00    	imul   $0xb910,%eax,%eax
  40168e:	89 44 24 f0          	mov    %eax,-0x10(%rsp)
  401692:	8b 44 24 e0          	mov    -0x20(%rsp),%eax
  401696:	69 c0 63 ff 00 00    	imul   $0xff63,%eax,%eax
  40169c:	89 44 24 e0          	mov    %eax,-0x20(%rsp)
  4016a0:	8b 44 24 e0          	mov    -0x20(%rsp),%eax
  4016a4:	69 c0 b2 ed 00 00    	imul   $0xedb2,%eax,%eax
  4016aa:	89 44 24 e0          	mov    %eax,-0x20(%rsp)
  4016ae:	8b 44 24 d0          	mov    -0x30(%rsp),%eax
  4016b2:	69 c0 26 2c 00 00    	imul   $0x2c26,%eax,%eax
  4016b8:	89 44 24 d0          	mov    %eax,-0x30(%rsp)
  4016bc:	8b 44 24 e8          	mov    -0x18(%rsp),%eax
  4016c0:	69 c0 5b fc 00 00    	imul   $0xfc5b,%eax,%eax
  4016c6:	89 44 24 e8          	mov    %eax,-0x18(%rsp)
  4016ca:	8b 44 24 e0          	mov    -0x20(%rsp),%eax
  4016ce:	69 c0 5b 46 00 00    	imul   $0x465b,%eax,%eax
  4016d4:	89 44 24 e0          	mov    %eax,-0x20(%rsp)
  4016d8:	8b 44 24 e4          	mov    -0x1c(%rsp),%eax
  4016dc:	69 c0 6a a9 00 00    	imul   $0xa96a,%eax,%eax
  4016e2:	89 44 24 e4          	mov    %eax,-0x1c(%rsp)
  4016e6:	8b 44 24 e4          	mov    -0x1c(%rsp),%eax
  4016ea:	69 c0 bb 9f 00 00    	imul   $0x9fbb,%eax,%eax
  4016f0:	89 44 24 e4          	mov    %eax,-0x1c(%rsp)
  4016f4:	8b 44 24 d8          	mov    -0x28(%rsp),%eax
  4016f8:	69 c0 c6 5b 00 00    	imul   $0x5bc6,%eax,%eax
  4016fe:	89 44 24 d8          	mov    %eax,-0x28(%rsp)
  401702:	8b 44 24 ec          	mov    -0x14(%rsp),%eax
  401706:	69 c0 84 b9 00 00    	imul   $0xb984,%eax,%eax
  40170c:	89 44 24 ec          	mov    %eax,-0x14(%rsp)
  401710:	8b 44 24 e4          	mov    -0x1c(%rsp),%eax
  401714:	69 c0 d3 51 00 00    	imul   $0x51d3,%eax,%eax
  40171a:	89 44 24 e4          	mov    %eax,-0x1c(%rsp)
  40171e:	8b 44 24 ec          	mov    -0x14(%rsp),%eax
  401722:	69 c0 24 de 00 00    	imul   $0xde24,%eax,%eax
  401728:	89 44 24 ec          	mov    %eax,-0x14(%rsp)
  40172c:	8b 44 24 f0          	mov    -0x10(%rsp),%eax
  401730:	69 c0 a1 39 00 00    	imul   $0x39a1,%eax,%eax
  401736:	89 44 24 f0          	mov    %eax,-0x10(%rsp)
  40173a:	8b 44 24 dc          	mov    -0x24(%rsp),%eax
  40173e:	69 c0 05 60 00 00    	imul   $0x6005,%eax,%eax
  401744:	89 44 24 dc          	mov    %eax,-0x24(%rsp)
  401748:	8b 44 24 d8          	mov    -0x28(%rsp),%eax
  40174c:	69 c0 de a2 00 00    	imul   $0xa2de,%eax,%eax
  401752:	89 44 24 d8          	mov    %eax,-0x28(%rsp)
  401756:	8b 44 24 f0          	mov    -0x10(%rsp),%eax
  40175a:	69 c0 7b 25 00 00    	imul   $0x257b,%eax,%eax
  401760:	89 44 24 f0          	mov    %eax,-0x10(%rsp)
  401764:	8b 44 24 f0          	mov    -0x10(%rsp),%eax
  401768:	69 c0 d7 6c 00 00    	imul   $0x6cd7,%eax,%eax
  40176e:	89 44 24 f0          	mov    %eax,-0x10(%rsp)
  401772:	8b 44 24 e4          	mov    -0x1c(%rsp),%eax
  401776:	69 c0 84 e2 00 00    	imul   $0xe284,%eax,%eax
  40177c:	89 44 24 e4          	mov    %eax,-0x1c(%rsp)
  401780:	8b 44 24 d8          	mov    -0x28(%rsp),%eax
  401784:	69 c0 17 c9 00 00    	imul   $0xc917,%eax,%eax
  40178a:	89 44 24 d8          	mov    %eax,-0x28(%rsp)
  40178e:	8b 44 24 d0          	mov    -0x30(%rsp),%eax
  401792:	69 c0 f1 0f 00 00    	imul   $0xff1,%eax,%eax
  401798:	89 44 24 d0          	mov    %eax,-0x30(%rsp)
  40179c:	8b 44 24 d4          	mov    -0x2c(%rsp),%eax
  4017a0:	69 c0 dd db 00 00    	imul   $0xdbdd,%eax,%eax
  4017a6:	89 44 24 d4          	mov    %eax,-0x2c(%rsp)
  4017aa:	8b 44 24 d4          	mov    -0x2c(%rsp),%eax
  4017ae:	69 c0 cb a2 00 00    	imul   $0xa2cb,%eax,%eax
  4017b4:	89 44 24 d4          	mov    %eax,-0x2c(%rsp)
  4017b8:	ba 00 00 00 00       	mov    $0x0,%edx
  4017bd:	b8 00 00 00 00       	mov    $0x0,%eax
  4017c2:	83 fa 09             	cmp    $0x9,%edx
  4017c5:	77 0d                	ja     4017d4 <scramble+0x4ed>
  4017c7:	89 d1                	mov    %edx,%ecx
  4017c9:	8b 4c 8c d0          	mov    -0x30(%rsp,%rcx,4),%ecx
  4017cd:	01 c8                	add    %ecx,%eax
  4017cf:	83 c2 01             	add    $0x1,%edx
  4017d2:	eb ee                	jmp    4017c2 <scramble+0x4db>
  4017d4:	c3                   	retq   

00000000004017d5 <getbuf>:
  4017d5:	48 83 ec 28          	sub    $0x28,%rsp
  4017d9:	48 89 e7             	mov    %rsp,%rdi
  4017dc:	e8 4c 03 00 00       	callq  401b2d <Gets>
  4017e1:	b8 01 00 00 00       	mov    $0x1,%eax
  4017e6:	48 83 c4 28          	add    $0x28,%rsp
  4017ea:	c3                   	retq   

00000000004017eb <touch1>:
  4017eb:	48 83 ec 08          	sub    $0x8,%rsp
  4017ef:	c7 05 03 3d 20 00 01 	movl   $0x1,0x203d03(%rip)        # 6054fc <vlevel>
  4017f6:	00 00 00 
  4017f9:	bf 7e 32 40 00       	mov    $0x40327e,%edi
  4017fe:	e8 cd f4 ff ff       	callq  400cd0 <puts@plt>
  401803:	bf 01 00 00 00       	mov    $0x1,%edi
  401808:	e8 13 05 00 00       	callq  401d20 <validate>
  40180d:	bf 00 00 00 00       	mov    $0x0,%edi
  401812:	e8 29 f6 ff ff       	callq  400e40 <exit@plt>

0000000000401817 <touch2>:
  401817:	48 83 ec 08          	sub    $0x8,%rsp
  40181b:	89 fe                	mov    %edi,%esi
  40181d:	c7 05 d5 3c 20 00 02 	movl   $0x2,0x203cd5(%rip)        # 6054fc <vlevel>
  401824:	00 00 00 
  401827:	39 3d d7 3c 20 00    	cmp    %edi,0x203cd7(%rip)        # 605504 <cookie>
  40182d:	74 23                	je     401852 <touch2+0x3b>
  40182f:	bf c8 32 40 00       	mov    $0x4032c8,%edi
  401834:	b8 00 00 00 00       	mov    $0x0,%eax
  401839:	e8 c2 f4 ff ff       	callq  400d00 <printf@plt>
  40183e:	bf 02 00 00 00       	mov    $0x2,%edi
  401843:	e8 8a 05 00 00       	callq  401dd2 <fail>
  401848:	bf 00 00 00 00       	mov    $0x0,%edi
  40184d:	e8 ee f5 ff ff       	callq  400e40 <exit@plt>
  401852:	bf a0 32 40 00       	mov    $0x4032a0,%edi
  401857:	b8 00 00 00 00       	mov    $0x0,%eax
  40185c:	e8 9f f4 ff ff       	callq  400d00 <printf@plt>
  401861:	bf 02 00 00 00       	mov    $0x2,%edi
  401866:	e8 b5 04 00 00       	callq  401d20 <validate>
  40186b:	eb db                	jmp    401848 <touch2+0x31>

000000000040186d <hexmatch>:
  40186d:	41 54                	push   %r12
  40186f:	55                   	push   %rbp
  401870:	53                   	push   %rbx
  401871:	48 83 ec 70          	sub    $0x70,%rsp
  401875:	89 fd                	mov    %edi,%ebp
  401877:	48 89 f3             	mov    %rsi,%rbx
  40187a:	e8 31 f5 ff ff       	callq  400db0 <random@plt>
  40187f:	48 89 c1             	mov    %rax,%rcx
  401882:	48 ba 0b d7 a3 70 3d 	movabs $0xa3d70a3d70a3d70b,%rdx
  401889:	0a d7 a3 
  40188c:	48 f7 ea             	imul   %rdx
  40188f:	48 01 ca             	add    %rcx,%rdx
  401892:	48 c1 fa 06          	sar    $0x6,%rdx
  401896:	48 89 c8             	mov    %rcx,%rax
  401899:	48 c1 f8 3f          	sar    $0x3f,%rax
  40189d:	48 29 c2             	sub    %rax,%rdx
  4018a0:	48 8d 04 92          	lea    (%rdx,%rdx,4),%rax
  4018a4:	48 8d 14 80          	lea    (%rax,%rax,4),%rdx
  4018a8:	48 8d 04 95 00 00 00 	lea    0x0(,%rdx,4),%rax
  4018af:	00 
  4018b0:	48 29 c1             	sub    %rax,%rcx
  4018b3:	4c 8d 24 0c          	lea    (%rsp,%rcx,1),%r12
  4018b7:	89 ea                	mov    %ebp,%edx
  4018b9:	be 9b 32 40 00       	mov    $0x40329b,%esi
  4018be:	4c 89 e7             	mov    %r12,%rdi
  4018c1:	b8 00 00 00 00       	mov    $0x0,%eax
  4018c6:	e8 65 f5 ff ff       	callq  400e30 <sprintf@plt>
  4018cb:	ba 09 00 00 00       	mov    $0x9,%edx
  4018d0:	4c 89 e6             	mov    %r12,%rsi
  4018d3:	48 89 df             	mov    %rbx,%rdi
  4018d6:	e8 d5 f3 ff ff       	callq  400cb0 <strncmp@plt>
  4018db:	85 c0                	test   %eax,%eax
  4018dd:	0f 94 c0             	sete   %al
  4018e0:	0f b6 c0             	movzbl %al,%eax
  4018e3:	48 83 c4 70          	add    $0x70,%rsp
  4018e7:	5b                   	pop    %rbx
  4018e8:	5d                   	pop    %rbp
  4018e9:	41 5c                	pop    %r12
  4018eb:	c3                   	retq   

00000000004018ec <touch3>:
  4018ec:	53                   	push   %rbx
  4018ed:	48 89 fb             	mov    %rdi,%rbx
  4018f0:	c7 05 02 3c 20 00 03 	movl   $0x3,0x203c02(%rip)        # 6054fc <vlevel>
  4018f7:	00 00 00 
  4018fa:	48 89 fe             	mov    %rdi,%rsi
  4018fd:	8b 3d 01 3c 20 00    	mov    0x203c01(%rip),%edi        # 605504 <cookie>
  401903:	e8 65 ff ff ff       	callq  40186d <hexmatch>
  401908:	85 c0                	test   %eax,%eax
  40190a:	74 26                	je     401932 <touch3+0x46>
  40190c:	48 89 de             	mov    %rbx,%rsi
  40190f:	bf f0 32 40 00       	mov    $0x4032f0,%edi
  401914:	b8 00 00 00 00       	mov    $0x0,%eax
  401919:	e8 e2 f3 ff ff       	callq  400d00 <printf@plt>
  40191e:	bf 03 00 00 00       	mov    $0x3,%edi
  401923:	e8 f8 03 00 00       	callq  401d20 <validate>
  401928:	bf 00 00 00 00       	mov    $0x0,%edi
  40192d:	e8 0e f5 ff ff       	callq  400e40 <exit@plt>
  401932:	48 89 de             	mov    %rbx,%rsi
  401935:	bf 18 33 40 00       	mov    $0x403318,%edi
  40193a:	b8 00 00 00 00       	mov    $0x0,%eax
  40193f:	e8 bc f3 ff ff       	callq  400d00 <printf@plt>
  401944:	bf 03 00 00 00       	mov    $0x3,%edi
  401949:	e8 84 04 00 00       	callq  401dd2 <fail>
  40194e:	eb d8                	jmp    401928 <touch3+0x3c>

0000000000401950 <test>:
  401950:	48 83 ec 08          	sub    $0x8,%rsp
  401954:	b8 00 00 00 00       	mov    $0x0,%eax
  401959:	e8 77 fe ff ff       	callq  4017d5 <getbuf>
  40195e:	89 c6                	mov    %eax,%esi
  401960:	bf 40 33 40 00       	mov    $0x403340,%edi
  401965:	b8 00 00 00 00       	mov    $0x0,%eax
  40196a:	e8 91 f3 ff ff       	callq  400d00 <printf@plt>
  40196f:	48 83 c4 08          	add    $0x8,%rsp
  401973:	c3                   	retq   

0000000000401974 <start_farm>:
  401974:	b8 01 00 00 00       	mov    $0x1,%eax
  401979:	c3                   	retq   

000000000040197a <getval_206>:
  40197a:	b8 48 89 c7 94       	mov    $0x94c78948,%eax
  40197f:	c3                   	retq   

0000000000401980 <setval_182>:
  401980:	c7 07 48 89 c7 c3    	movl   $0xc3c78948,(%rdi)
  401986:	c3                   	retq   

0000000000401987 <setval_280>:
  401987:	c7 07 af 5a 12 58    	movl   $0x58125aaf,(%rdi)
  40198d:	c3                   	retq   

000000000040198e <getval_335>:
  40198e:	b8 3a 58 90 90       	mov    $0x9090583a,%eax
  401993:	c3                   	retq   

0000000000401994 <getval_180>:
  401994:	b8 25 58 94 90       	mov    $0x90945825,%eax
  401999:	c3                   	retq   

000000000040199a <getval_497>:
  40199a:	b8 48 89 c7 c3       	mov    $0xc3c78948,%eax
  40199f:	c3                   	retq   

00000000004019a0 <getval_361>:
  4019a0:	b8 58 90 90 c1       	mov    $0xc1909058,%eax
  4019a5:	c3                   	retq   

00000000004019a6 <getval_144>:
  4019a6:	b8 48 8b c7 c3       	mov    $0xc3c78b48,%eax
  4019ab:	c3                   	retq   

00000000004019ac <mid_farm>:
  4019ac:	b8 01 00 00 00       	mov    $0x1,%eax
  4019b1:	c3                   	retq   

00000000004019b2 <add_xy>:
  4019b2:	48 8d 04 37          	lea    (%rdi,%rsi,1),%rax
  4019b6:	c3                   	retq   

00000000004019b7 <setval_135>:
  4019b7:	c7 07 89 d1 90 90    	movl   $0x9090d189,(%rdi)
  4019bd:	c3                   	retq   

00000000004019be <getval_490>:
  4019be:	b8 89 ce 20 c9       	mov    $0xc920ce89,%eax
  4019c3:	c3                   	retq   

00000000004019c4 <addval_225>:
  4019c4:	8d 87 8b ce 84 c9    	lea    -0x367b3175(%rdi),%eax
  4019ca:	c3                   	retq   

00000000004019cb <setval_122>:
  4019cb:	c7 07 88 d1 08 c9    	movl   $0xc908d188,(%rdi)
  4019d1:	c3                   	retq   

00000000004019d2 <addval_192>:
  4019d2:	8d 87 88 d1 90 90    	lea    -0x6f6f2e78(%rdi),%eax
  4019d8:	c3                   	retq   

00000000004019d9 <getval_496>:
  4019d9:	b8 48 89 e0 c2       	mov    $0xc2e08948,%eax
  4019de:	c3                   	retq   

00000000004019df <getval_134>:
  4019df:	b8 89 ce 38 c9       	mov    $0xc938ce89,%eax
  4019e4:	c3                   	retq   

00000000004019e5 <setval_320>:
  4019e5:	c7 07 89 c2 90 c3    	movl   $0xc390c289,(%rdi)
  4019eb:	c3                   	retq   

00000000004019ec <getval_428>:
  4019ec:	b8 a9 d1 20 db       	mov    $0xdb20d1a9,%eax
  4019f1:	c3                   	retq   

00000000004019f2 <addval_325>:
  4019f2:	8d 87 89 ce 78 c9    	lea    -0x36873177(%rdi),%eax
  4019f8:	c3                   	retq   

00000000004019f9 <addval_102>:
  4019f9:	8d 87 89 c2 84 c9    	lea    -0x367b3d77(%rdi),%eax
  4019ff:	c3                   	retq   

0000000000401a00 <setval_270>:
  401a00:	c7 07 89 4c 89 e0    	movl   $0xe0894c89,(%rdi)
  401a06:	c3                   	retq   

0000000000401a07 <getval_165>:
  401a07:	b8 c9 c2 84 d2       	mov    $0xd284c2c9,%eax
  401a0c:	c3                   	retq   

0000000000401a0d <setval_284>:
  401a0d:	c7 07 89 c2 94 c9    	movl   $0xc994c289,(%rdi)
  401a13:	c3                   	retq   

0000000000401a14 <setval_290>:
  401a14:	c7 07 48 89 e0 92    	movl   $0x92e08948,(%rdi)
  401a1a:	c3                   	retq   

0000000000401a1b <setval_169>:
  401a1b:	c7 07 89 d1 84 c9    	movl   $0xc984d189,(%rdi)
  401a21:	c3                   	retq   

0000000000401a22 <setval_246>:
  401a22:	c7 07 8b ce 38 db    	movl   $0xdb38ce8b,(%rdi)
  401a28:	c3                   	retq   

0000000000401a29 <addval_471>:
  401a29:	8d 87 be 89 d1 94    	lea    -0x6b2e7642(%rdi),%eax
  401a2f:	c3                   	retq   

0000000000401a30 <getval_119>:
  401a30:	b8 89 c2 28 c0       	mov    $0xc028c289,%eax
  401a35:	c3                   	retq   

0000000000401a36 <getval_103>:
  401a36:	b8 48 89 e0 91       	mov    $0x91e08948,%eax
  401a3b:	c3                   	retq   

0000000000401a3c <getval_429>:
  401a3c:	b8 4f 4d 09 d1       	mov    $0xd1094d4f,%eax
  401a41:	c3                   	retq   

0000000000401a42 <addval_219>:
  401a42:	8d 87 48 8d e0 c3    	lea    -0x3c1f72b8(%rdi),%eax
  401a48:	c3                   	retq   

0000000000401a49 <addval_332>:
  401a49:	8d 87 8b ce 90 90    	lea    -0x6f6f3175(%rdi),%eax
  401a4f:	c3                   	retq   

0000000000401a50 <addval_479>:
  401a50:	8d 87 48 89 e0 90    	lea    -0x6f1f76b8(%rdi),%eax
  401a56:	c3                   	retq   

0000000000401a57 <getval_151>:
  401a57:	b8 81 c2 38 c0       	mov    $0xc038c281,%eax
  401a5c:	c3                   	retq   

0000000000401a5d <setval_141>:
  401a5d:	c7 07 37 09 d1 90    	movl   $0x90d10937,(%rdi)
  401a63:	c3                   	retq   

0000000000401a64 <addval_311>:
  401a64:	8d 87 21 c9 c2 90    	lea    -0x6f3d36df(%rdi),%eax
  401a6a:	c3                   	retq   

0000000000401a6b <addval_216>:
  401a6b:	8d 87 48 09 e0 90    	lea    -0x6f1ff6b8(%rdi),%eax
  401a71:	c3                   	retq   

0000000000401a72 <setval_468>:
  401a72:	c7 07 89 c2 18 d2    	movl   $0xd218c289,(%rdi)
  401a78:	c3                   	retq   

0000000000401a79 <setval_201>:
  401a79:	c7 07 54 48 89 e0    	movl   $0xe0894854,(%rdi)
  401a7f:	c3                   	retq   

0000000000401a80 <addval_424>:
  401a80:	8d 87 10 89 ce 92    	lea    -0x6d3176f0(%rdi),%eax
  401a86:	c3                   	retq   

0000000000401a87 <addval_436>:
  401a87:	8d 87 88 ce 90 c3    	lea    -0x3c6f3178(%rdi),%eax
  401a8d:	c3                   	retq   

0000000000401a8e <end_farm>:
  401a8e:	b8 01 00 00 00       	mov    $0x1,%eax
  401a93:	c3                   	retq   

0000000000401a94 <save_char>:
  401a94:	8b 05 8a 46 20 00    	mov    0x20468a(%rip),%eax        # 606124 <gets_cnt>
  401a9a:	3d ff 03 00 00       	cmp    $0x3ff,%eax
  401a9f:	7f 49                	jg     401aea <save_char+0x56>
  401aa1:	89 f9                	mov    %edi,%ecx
  401aa3:	c0 e9 04             	shr    $0x4,%cl
  401aa6:	8d 14 40             	lea    (%rax,%rax,2),%edx
  401aa9:	83 e1 0f             	and    $0xf,%ecx
  401aac:	0f b6 b1 60 36 40 00 	movzbl 0x403660(%rcx),%esi
  401ab3:	48 63 ca             	movslq %edx,%rcx
  401ab6:	40 88 b1 20 55 60 00 	mov    %sil,0x605520(%rcx)
  401abd:	8d 4a 01             	lea    0x1(%rdx),%ecx
  401ac0:	83 e7 0f             	and    $0xf,%edi
  401ac3:	0f b6 b7 60 36 40 00 	movzbl 0x403660(%rdi),%esi
  401aca:	48 63 c9             	movslq %ecx,%rcx
  401acd:	40 88 b1 20 55 60 00 	mov    %sil,0x605520(%rcx)
  401ad4:	83 c2 02             	add    $0x2,%edx
  401ad7:	48 63 d2             	movslq %edx,%rdx
  401ada:	c6 82 20 55 60 00 20 	movb   $0x20,0x605520(%rdx)
  401ae1:	83 c0 01             	add    $0x1,%eax
  401ae4:	89 05 3a 46 20 00    	mov    %eax,0x20463a(%rip)        # 606124 <gets_cnt>
  401aea:	c3                   	retq   

0000000000401aeb <save_term>:
  401aeb:	8b 05 33 46 20 00    	mov    0x204633(%rip),%eax        # 606124 <gets_cnt>
  401af1:	8d 04 40             	lea    (%rax,%rax,2),%eax
  401af4:	48 98                	cltq   
  401af6:	c6 80 20 55 60 00 00 	movb   $0x0,0x605520(%rax)
  401afd:	c3                   	retq   

0000000000401afe <check_fail>:
  401afe:	48 83 ec 08          	sub    $0x8,%rsp
  401b02:	0f be 35 1f 46 20 00 	movsbl 0x20461f(%rip),%esi        # 606128 <target_prefix>
  401b09:	b9 20 55 60 00       	mov    $0x605520,%ecx
  401b0e:	8b 15 e4 39 20 00    	mov    0x2039e4(%rip),%edx        # 6054f8 <check_level>
  401b14:	bf 63 33 40 00       	mov    $0x403363,%edi
  401b19:	b8 00 00 00 00       	mov    $0x0,%eax
  401b1e:	e8 dd f1 ff ff       	callq  400d00 <printf@plt>
  401b23:	bf 01 00 00 00       	mov    $0x1,%edi
  401b28:	e8 13 f3 ff ff       	callq  400e40 <exit@plt>

0000000000401b2d <Gets>:
  401b2d:	41 54                	push   %r12
  401b2f:	55                   	push   %rbp
  401b30:	53                   	push   %rbx
  401b31:	49 89 fc             	mov    %rdi,%r12
  401b34:	c7 05 e6 45 20 00 00 	movl   $0x0,0x2045e6(%rip)        # 606124 <gets_cnt>
  401b3b:	00 00 00 
  401b3e:	48 89 fb             	mov    %rdi,%rbx
  401b41:	48 8b 3d a8 39 20 00 	mov    0x2039a8(%rip),%rdi        # 6054f0 <infile>
  401b48:	e8 13 f3 ff ff       	callq  400e60 <getc@plt>
  401b4d:	83 f8 ff             	cmp    $0xffffffff,%eax
  401b50:	74 18                	je     401b6a <Gets+0x3d>
  401b52:	83 f8 0a             	cmp    $0xa,%eax
  401b55:	74 13                	je     401b6a <Gets+0x3d>
  401b57:	48 8d 6b 01          	lea    0x1(%rbx),%rbp
  401b5b:	88 03                	mov    %al,(%rbx)
  401b5d:	0f b6 f8             	movzbl %al,%edi
  401b60:	e8 2f ff ff ff       	callq  401a94 <save_char>
  401b65:	48 89 eb             	mov    %rbp,%rbx
  401b68:	eb d7                	jmp    401b41 <Gets+0x14>
  401b6a:	c6 03 00             	movb   $0x0,(%rbx)
  401b6d:	b8 00 00 00 00       	mov    $0x0,%eax
  401b72:	e8 74 ff ff ff       	callq  401aeb <save_term>
  401b77:	4c 89 e0             	mov    %r12,%rax
  401b7a:	5b                   	pop    %rbx
  401b7b:	5d                   	pop    %rbp
  401b7c:	41 5c                	pop    %r12
  401b7e:	c3                   	retq   

0000000000401b7f <notify_server>:
  401b7f:	83 3d 82 39 20 00 00 	cmpl   $0x0,0x203982(%rip)        # 605508 <is_checker>
  401b86:	0f 85 93 01 00 00    	jne    401d1f <notify_server+0x1a0>
  401b8c:	55                   	push   %rbp
  401b8d:	53                   	push   %rbx
  401b8e:	48 81 ec 08 40 00 00 	sub    $0x4008,%rsp
  401b95:	89 fb                	mov    %edi,%ebx
  401b97:	81 3d 83 45 20 00 9c 	cmpl   $0x1f9c,0x204583(%rip)        # 606124 <gets_cnt>
  401b9e:	1f 00 00 
  401ba1:	0f 8f ad 00 00 00    	jg     401c54 <notify_server+0xd5>
  401ba7:	44 0f be 0d 79 45 20 	movsbl 0x204579(%rip),%r9d        # 606128 <target_prefix>
  401bae:	00 
  401baf:	83 3d d2 38 20 00 00 	cmpl   $0x0,0x2038d2(%rip)        # 605488 <notify>
  401bb6:	0f 84 b1 00 00 00    	je     401c6d <notify_server+0xee>
  401bbc:	44 8b 05 3d 39 20 00 	mov    0x20393d(%rip),%r8d        # 605500 <authkey>
  401bc3:	85 db                	test   %ebx,%ebx
  401bc5:	0f 84 ad 00 00 00    	je     401c78 <notify_server+0xf9>
  401bcb:	bd 7e 33 40 00       	mov    $0x40337e,%ebp
  401bd0:	68 20 55 60 00       	pushq  $0x605520
  401bd5:	56                   	push   %rsi
  401bd6:	48 89 e9             	mov    %rbp,%rcx
  401bd9:	8b 15 69 35 20 00    	mov    0x203569(%rip),%edx        # 605148 <target_id>
  401bdf:	be 83 33 40 00       	mov    $0x403383,%esi
  401be4:	48 8d bc 24 10 20 00 	lea    0x2010(%rsp),%rdi
  401beb:	00 
  401bec:	b8 00 00 00 00       	mov    $0x0,%eax
  401bf1:	e8 3a f2 ff ff       	callq  400e30 <sprintf@plt>
  401bf6:	48 83 c4 10          	add    $0x10,%rsp
  401bfa:	83 3d 87 38 20 00 00 	cmpl   $0x0,0x203887(%rip)        # 605488 <notify>
  401c01:	0f 84 ab 00 00 00    	je     401cb2 <notify_server+0x133>
  401c07:	85 db                	test   %ebx,%ebx
  401c09:	0f 84 8f 00 00 00    	je     401c9e <notify_server+0x11f>
  401c0f:	49 89 e1             	mov    %rsp,%r9
  401c12:	41 b8 00 00 00 00    	mov    $0x0,%r8d
  401c18:	48 8d 8c 24 00 20 00 	lea    0x2000(%rsp),%rcx
  401c1f:	00 
  401c20:	48 8b 15 29 35 20 00 	mov    0x203529(%rip),%rdx        # 605150 <lab>
  401c27:	48 8b 35 2a 35 20 00 	mov    0x20352a(%rip),%rsi        # 605158 <course>
  401c2e:	48 8b 3d 0b 35 20 00 	mov    0x20350b(%rip),%rdi        # 605140 <user_id>
  401c35:	e8 e5 0f 00 00       	callq  402c1f <driver_post>
  401c3a:	85 c0                	test   %eax,%eax
  401c3c:	78 44                	js     401c82 <notify_server+0x103>
  401c3e:	bf c8 34 40 00       	mov    $0x4034c8,%edi
  401c43:	e8 88 f0 ff ff       	callq  400cd0 <puts@plt>
  401c48:	bf ab 33 40 00       	mov    $0x4033ab,%edi
  401c4d:	e8 7e f0 ff ff       	callq  400cd0 <puts@plt>
  401c52:	eb 54                	jmp    401ca8 <notify_server+0x129>
  401c54:	bf 98 34 40 00       	mov    $0x403498,%edi
  401c59:	b8 00 00 00 00       	mov    $0x0,%eax
  401c5e:	e8 9d f0 ff ff       	callq  400d00 <printf@plt>
  401c63:	bf 01 00 00 00       	mov    $0x1,%edi
  401c68:	e8 d3 f1 ff ff       	callq  400e40 <exit@plt>
  401c6d:	41 b8 ff ff ff ff    	mov    $0xffffffff,%r8d
  401c73:	e9 4b ff ff ff       	jmpq   401bc3 <notify_server+0x44>
  401c78:	bd 79 33 40 00       	mov    $0x403379,%ebp
  401c7d:	e9 4e ff ff ff       	jmpq   401bd0 <notify_server+0x51>
  401c82:	48 89 e6             	mov    %rsp,%rsi
  401c85:	bf 9f 33 40 00       	mov    $0x40339f,%edi
  401c8a:	b8 00 00 00 00       	mov    $0x0,%eax
  401c8f:	e8 6c f0 ff ff       	callq  400d00 <printf@plt>
  401c94:	bf 01 00 00 00       	mov    $0x1,%edi
  401c99:	e8 a2 f1 ff ff       	callq  400e40 <exit@plt>
  401c9e:	bf b5 33 40 00       	mov    $0x4033b5,%edi
  401ca3:	e8 28 f0 ff ff       	callq  400cd0 <puts@plt>
  401ca8:	48 81 c4 08 40 00 00 	add    $0x4008,%rsp
  401caf:	5b                   	pop    %rbx
  401cb0:	5d                   	pop    %rbp
  401cb1:	c3                   	retq   
  401cb2:	48 89 ee             	mov    %rbp,%rsi
  401cb5:	bf 00 35 40 00       	mov    $0x403500,%edi
  401cba:	b8 00 00 00 00       	mov    $0x0,%eax
  401cbf:	e8 3c f0 ff ff       	callq  400d00 <printf@plt>
  401cc4:	48 8b 35 75 34 20 00 	mov    0x203475(%rip),%rsi        # 605140 <user_id>
  401ccb:	bf bc 33 40 00       	mov    $0x4033bc,%edi
  401cd0:	b8 00 00 00 00       	mov    $0x0,%eax
  401cd5:	e8 26 f0 ff ff       	callq  400d00 <printf@plt>
  401cda:	48 8b 35 77 34 20 00 	mov    0x203477(%rip),%rsi        # 605158 <course>
  401ce1:	bf c9 33 40 00       	mov    $0x4033c9,%edi
  401ce6:	b8 00 00 00 00       	mov    $0x0,%eax
  401ceb:	e8 10 f0 ff ff       	callq  400d00 <printf@plt>
  401cf0:	48 8b 35 59 34 20 00 	mov    0x203459(%rip),%rsi        # 605150 <lab>
  401cf7:	bf d5 33 40 00       	mov    $0x4033d5,%edi
  401cfc:	b8 00 00 00 00       	mov    $0x0,%eax
  401d01:	e8 fa ef ff ff       	callq  400d00 <printf@plt>
  401d06:	48 8d b4 24 00 20 00 	lea    0x2000(%rsp),%rsi
  401d0d:	00 
  401d0e:	bf de 33 40 00       	mov    $0x4033de,%edi
  401d13:	b8 00 00 00 00       	mov    $0x0,%eax
  401d18:	e8 e3 ef ff ff       	callq  400d00 <printf@plt>
  401d1d:	eb 89                	jmp    401ca8 <notify_server+0x129>
  401d1f:	c3                   	retq   

0000000000401d20 <validate>:
  401d20:	53                   	push   %rbx
  401d21:	89 fb                	mov    %edi,%ebx
  401d23:	83 3d de 37 20 00 00 	cmpl   $0x0,0x2037de(%rip)        # 605508 <is_checker>
  401d2a:	74 60                	je     401d8c <validate+0x6c>
  401d2c:	39 3d ca 37 20 00    	cmp    %edi,0x2037ca(%rip)        # 6054fc <vlevel>
  401d32:	75 29                	jne    401d5d <validate+0x3d>
  401d34:	8b 35 be 37 20 00    	mov    0x2037be(%rip),%esi        # 6054f8 <check_level>
  401d3a:	39 fe                	cmp    %edi,%esi
  401d3c:	75 33                	jne    401d71 <validate+0x51>
  401d3e:	0f be 35 e3 43 20 00 	movsbl 0x2043e3(%rip),%esi        # 606128 <target_prefix>
  401d45:	b9 20 55 60 00       	mov    $0x605520,%ecx
  401d4a:	89 fa                	mov    %edi,%edx
  401d4c:	bf 08 34 40 00       	mov    $0x403408,%edi
  401d51:	b8 00 00 00 00       	mov    $0x0,%eax
  401d56:	e8 a5 ef ff ff       	callq  400d00 <printf@plt>
  401d5b:	5b                   	pop    %rbx
  401d5c:	c3                   	retq   
  401d5d:	bf ea 33 40 00       	mov    $0x4033ea,%edi
  401d62:	e8 69 ef ff ff       	callq  400cd0 <puts@plt>
  401d67:	b8 00 00 00 00       	mov    $0x0,%eax
  401d6c:	e8 8d fd ff ff       	callq  401afe <check_fail>
  401d71:	89 fa                	mov    %edi,%edx
  401d73:	bf 28 35 40 00       	mov    $0x403528,%edi
  401d78:	b8 00 00 00 00       	mov    $0x0,%eax
  401d7d:	e8 7e ef ff ff       	callq  400d00 <printf@plt>
  401d82:	b8 00 00 00 00       	mov    $0x0,%eax
  401d87:	e8 72 fd ff ff       	callq  401afe <check_fail>
  401d8c:	39 3d 6a 37 20 00    	cmp    %edi,0x20376a(%rip)        # 6054fc <vlevel>
  401d92:	74 18                	je     401dac <validate+0x8c>
  401d94:	bf ea 33 40 00       	mov    $0x4033ea,%edi
  401d99:	e8 32 ef ff ff       	callq  400cd0 <puts@plt>
  401d9e:	89 de                	mov    %ebx,%esi
  401da0:	bf 00 00 00 00       	mov    $0x0,%edi
  401da5:	e8 d5 fd ff ff       	callq  401b7f <notify_server>
  401daa:	eb af                	jmp    401d5b <validate+0x3b>
  401dac:	0f be 15 75 43 20 00 	movsbl 0x204375(%rip),%edx        # 606128 <target_prefix>
  401db3:	89 fe                	mov    %edi,%esi
  401db5:	bf 50 35 40 00       	mov    $0x403550,%edi
  401dba:	b8 00 00 00 00       	mov    $0x0,%eax
  401dbf:	e8 3c ef ff ff       	callq  400d00 <printf@plt>
  401dc4:	89 de                	mov    %ebx,%esi
  401dc6:	bf 01 00 00 00       	mov    $0x1,%edi
  401dcb:	e8 af fd ff ff       	callq  401b7f <notify_server>
  401dd0:	eb 89                	jmp    401d5b <validate+0x3b>

0000000000401dd2 <fail>:
  401dd2:	48 83 ec 08          	sub    $0x8,%rsp
  401dd6:	83 3d 2b 37 20 00 00 	cmpl   $0x0,0x20372b(%rip)        # 605508 <is_checker>
  401ddd:	75 11                	jne    401df0 <fail+0x1e>
  401ddf:	89 fe                	mov    %edi,%esi
  401de1:	bf 00 00 00 00       	mov    $0x0,%edi
  401de6:	e8 94 fd ff ff       	callq  401b7f <notify_server>
  401deb:	48 83 c4 08          	add    $0x8,%rsp
  401def:	c3                   	retq   
  401df0:	b8 00 00 00 00       	mov    $0x0,%eax
  401df5:	e8 04 fd ff ff       	callq  401afe <check_fail>

0000000000401dfa <bushandler>:
  401dfa:	48 83 ec 08          	sub    $0x8,%rsp
  401dfe:	83 3d 03 37 20 00 00 	cmpl   $0x0,0x203703(%rip)        # 605508 <is_checker>
  401e05:	74 14                	je     401e1b <bushandler+0x21>
  401e07:	bf 1d 34 40 00       	mov    $0x40341d,%edi
  401e0c:	e8 bf ee ff ff       	callq  400cd0 <puts@plt>
  401e11:	b8 00 00 00 00       	mov    $0x0,%eax
  401e16:	e8 e3 fc ff ff       	callq  401afe <check_fail>
  401e1b:	bf 88 35 40 00       	mov    $0x403588,%edi
  401e20:	e8 ab ee ff ff       	callq  400cd0 <puts@plt>
  401e25:	bf 27 34 40 00       	mov    $0x403427,%edi
  401e2a:	e8 a1 ee ff ff       	callq  400cd0 <puts@plt>
  401e2f:	be 00 00 00 00       	mov    $0x0,%esi
  401e34:	bf 00 00 00 00       	mov    $0x0,%edi
  401e39:	e8 41 fd ff ff       	callq  401b7f <notify_server>
  401e3e:	bf 01 00 00 00       	mov    $0x1,%edi
  401e43:	e8 f8 ef ff ff       	callq  400e40 <exit@plt>

0000000000401e48 <seghandler>:
  401e48:	48 83 ec 08          	sub    $0x8,%rsp
  401e4c:	83 3d b5 36 20 00 00 	cmpl   $0x0,0x2036b5(%rip)        # 605508 <is_checker>
  401e53:	74 14                	je     401e69 <seghandler+0x21>
  401e55:	bf 3d 34 40 00       	mov    $0x40343d,%edi
  401e5a:	e8 71 ee ff ff       	callq  400cd0 <puts@plt>
  401e5f:	b8 00 00 00 00       	mov    $0x0,%eax
  401e64:	e8 95 fc ff ff       	callq  401afe <check_fail>
  401e69:	bf a8 35 40 00       	mov    $0x4035a8,%edi
  401e6e:	e8 5d ee ff ff       	callq  400cd0 <puts@plt>
  401e73:	bf 27 34 40 00       	mov    $0x403427,%edi
  401e78:	e8 53 ee ff ff       	callq  400cd0 <puts@plt>
  401e7d:	be 00 00 00 00       	mov    $0x0,%esi
  401e82:	bf 00 00 00 00       	mov    $0x0,%edi
  401e87:	e8 f3 fc ff ff       	callq  401b7f <notify_server>
  401e8c:	bf 01 00 00 00       	mov    $0x1,%edi
  401e91:	e8 aa ef ff ff       	callq  400e40 <exit@plt>

0000000000401e96 <illegalhandler>:
  401e96:	48 83 ec 08          	sub    $0x8,%rsp
  401e9a:	83 3d 67 36 20 00 00 	cmpl   $0x0,0x203667(%rip)        # 605508 <is_checker>
  401ea1:	74 14                	je     401eb7 <illegalhandler+0x21>
  401ea3:	bf 50 34 40 00       	mov    $0x403450,%edi
  401ea8:	e8 23 ee ff ff       	callq  400cd0 <puts@plt>
  401ead:	b8 00 00 00 00       	mov    $0x0,%eax
  401eb2:	e8 47 fc ff ff       	callq  401afe <check_fail>
  401eb7:	bf d0 35 40 00       	mov    $0x4035d0,%edi
  401ebc:	e8 0f ee ff ff       	callq  400cd0 <puts@plt>
  401ec1:	bf 27 34 40 00       	mov    $0x403427,%edi
  401ec6:	e8 05 ee ff ff       	callq  400cd0 <puts@plt>
  401ecb:	be 00 00 00 00       	mov    $0x0,%esi
  401ed0:	bf 00 00 00 00       	mov    $0x0,%edi
  401ed5:	e8 a5 fc ff ff       	callq  401b7f <notify_server>
  401eda:	bf 01 00 00 00       	mov    $0x1,%edi
  401edf:	e8 5c ef ff ff       	callq  400e40 <exit@plt>

0000000000401ee4 <sigalrmhandler>:
  401ee4:	48 83 ec 08          	sub    $0x8,%rsp
  401ee8:	83 3d 19 36 20 00 00 	cmpl   $0x0,0x203619(%rip)        # 605508 <is_checker>
  401eef:	74 14                	je     401f05 <sigalrmhandler+0x21>
  401ef1:	bf 64 34 40 00       	mov    $0x403464,%edi
  401ef6:	e8 d5 ed ff ff       	callq  400cd0 <puts@plt>
  401efb:	b8 00 00 00 00       	mov    $0x0,%eax
  401f00:	e8 f9 fb ff ff       	callq  401afe <check_fail>
  401f05:	be 05 00 00 00       	mov    $0x5,%esi
  401f0a:	bf 00 36 40 00       	mov    $0x403600,%edi
  401f0f:	b8 00 00 00 00       	mov    $0x0,%eax
  401f14:	e8 e7 ed ff ff       	callq  400d00 <printf@plt>
  401f19:	be 00 00 00 00       	mov    $0x0,%esi
  401f1e:	bf 00 00 00 00       	mov    $0x0,%edi
  401f23:	e8 57 fc ff ff       	callq  401b7f <notify_server>
  401f28:	bf 01 00 00 00       	mov    $0x1,%edi
  401f2d:	e8 0e ef ff ff       	callq  400e40 <exit@plt>

0000000000401f32 <launch>:
  401f32:	55                   	push   %rbp
  401f33:	48 89 e5             	mov    %rsp,%rbp
  401f36:	48 89 fa             	mov    %rdi,%rdx
  401f39:	48 8d 47 17          	lea    0x17(%rdi),%rax
  401f3d:	48 83 e0 f0          	and    $0xfffffffffffffff0,%rax
  401f41:	48 29 c4             	sub    %rax,%rsp
  401f44:	48 8d 7c 24 0f       	lea    0xf(%rsp),%rdi
  401f49:	48 83 e7 f0          	and    $0xfffffffffffffff0,%rdi
  401f4d:	be f4 00 00 00       	mov    $0xf4,%esi
  401f52:	e8 b9 ed ff ff       	callq  400d10 <memset@plt>
  401f57:	48 8b 05 42 35 20 00 	mov    0x203542(%rip),%rax        # 6054a0 <stdin@@GLIBC_2.2.5>
  401f5e:	48 39 05 8b 35 20 00 	cmp    %rax,0x20358b(%rip)        # 6054f0 <infile>
  401f65:	74 29                	je     401f90 <launch+0x5e>
  401f67:	c7 05 8b 35 20 00 00 	movl   $0x0,0x20358b(%rip)        # 6054fc <vlevel>
  401f6e:	00 00 00 
  401f71:	b8 00 00 00 00       	mov    $0x0,%eax
  401f76:	e8 d5 f9 ff ff       	callq  401950 <test>
  401f7b:	83 3d 86 35 20 00 00 	cmpl   $0x0,0x203586(%rip)        # 605508 <is_checker>
  401f82:	75 1d                	jne    401fa1 <launch+0x6f>
  401f84:	bf 84 34 40 00       	mov    $0x403484,%edi
  401f89:	e8 42 ed ff ff       	callq  400cd0 <puts@plt>
  401f8e:	c9                   	leaveq 
  401f8f:	c3                   	retq   
  401f90:	bf 6c 34 40 00       	mov    $0x40346c,%edi
  401f95:	b8 00 00 00 00       	mov    $0x0,%eax
  401f9a:	e8 61 ed ff ff       	callq  400d00 <printf@plt>
  401f9f:	eb c6                	jmp    401f67 <launch+0x35>
  401fa1:	bf 79 34 40 00       	mov    $0x403479,%edi
  401fa6:	e8 25 ed ff ff       	callq  400cd0 <puts@plt>
  401fab:	b8 00 00 00 00       	mov    $0x0,%eax
  401fb0:	e8 49 fb ff ff       	callq  401afe <check_fail>

0000000000401fb5 <stable_launch>:
  401fb5:	53                   	push   %rbx
  401fb6:	48 89 3d 2b 35 20 00 	mov    %rdi,0x20352b(%rip)        # 6054e8 <global_offset>
  401fbd:	41 b9 00 00 00 00    	mov    $0x0,%r9d
  401fc3:	41 b8 00 00 00 00    	mov    $0x0,%r8d
  401fc9:	b9 32 01 00 00       	mov    $0x132,%ecx
  401fce:	ba 07 00 00 00       	mov    $0x7,%edx
  401fd3:	be 00 00 10 00       	mov    $0x100000,%esi
  401fd8:	bf 00 60 58 55       	mov    $0x55586000,%edi
  401fdd:	e8 0e ed ff ff       	callq  400cf0 <mmap@plt>
  401fe2:	48 89 c3             	mov    %rax,%rbx
  401fe5:	48 3d 00 60 58 55    	cmp    $0x55586000,%rax
  401feb:	75 43                	jne    402030 <stable_launch+0x7b>
  401fed:	48 8d 90 f8 ff 0f 00 	lea    0xffff8(%rax),%rdx
  401ff4:	48 89 15 35 41 20 00 	mov    %rdx,0x204135(%rip)        # 606130 <stack_top>
  401ffb:	48 89 e0             	mov    %rsp,%rax
  401ffe:	48 89 d4             	mov    %rdx,%rsp
  402001:	48 89 c2             	mov    %rax,%rdx
  402004:	48 89 15 d5 34 20 00 	mov    %rdx,0x2034d5(%rip)        # 6054e0 <global_save_stack>
  40200b:	48 8b 3d d6 34 20 00 	mov    0x2034d6(%rip),%rdi        # 6054e8 <global_offset>
  402012:	e8 1b ff ff ff       	callq  401f32 <launch>
  402017:	48 8b 05 c2 34 20 00 	mov    0x2034c2(%rip),%rax        # 6054e0 <global_save_stack>
  40201e:	48 89 c4             	mov    %rax,%rsp
  402021:	be 00 00 10 00       	mov    $0x100000,%esi
  402026:	48 89 df             	mov    %rbx,%rdi
  402029:	e8 a2 ed ff ff       	callq  400dd0 <munmap@plt>
  40202e:	5b                   	pop    %rbx
  40202f:	c3                   	retq   
  402030:	be 00 00 10 00       	mov    $0x100000,%esi
  402035:	48 89 c7             	mov    %rax,%rdi
  402038:	e8 93 ed ff ff       	callq  400dd0 <munmap@plt>
  40203d:	ba 00 60 58 55       	mov    $0x55586000,%edx
  402042:	be 38 36 40 00       	mov    $0x403638,%esi
  402047:	48 8b 3d 72 34 20 00 	mov    0x203472(%rip),%rdi        # 6054c0 <stderr@@GLIBC_2.2.5>
  40204e:	b8 00 00 00 00       	mov    $0x0,%eax
  402053:	e8 18 ed ff ff       	callq  400d70 <fprintf@plt>
  402058:	bf 01 00 00 00       	mov    $0x1,%edi
  40205d:	e8 de ed ff ff       	callq  400e40 <exit@plt>

0000000000402062 <rio_readinitb>:
  402062:	89 37                	mov    %esi,(%rdi)
  402064:	c7 47 04 00 00 00 00 	movl   $0x0,0x4(%rdi)
  40206b:	48 8d 47 10          	lea    0x10(%rdi),%rax
  40206f:	48 89 47 08          	mov    %rax,0x8(%rdi)
  402073:	c3                   	retq   

0000000000402074 <sigalrm_handler>:
  402074:	48 83 ec 08          	sub    $0x8,%rsp
  402078:	ba 00 00 00 00       	mov    $0x0,%edx
  40207d:	be 70 36 40 00       	mov    $0x403670,%esi
  402082:	48 8b 3d 37 34 20 00 	mov    0x203437(%rip),%rdi        # 6054c0 <stderr@@GLIBC_2.2.5>
  402089:	b8 00 00 00 00       	mov    $0x0,%eax
  40208e:	e8 dd ec ff ff       	callq  400d70 <fprintf@plt>
  402093:	bf 01 00 00 00       	mov    $0x1,%edi
  402098:	e8 a3 ed ff ff       	callq  400e40 <exit@plt>

000000000040209d <urlencode>:
  40209d:	41 54                	push   %r12
  40209f:	55                   	push   %rbp
  4020a0:	53                   	push   %rbx
  4020a1:	48 83 ec 10          	sub    $0x10,%rsp
  4020a5:	48 89 fb             	mov    %rdi,%rbx
  4020a8:	48 89 f5             	mov    %rsi,%rbp
  4020ab:	48 c7 c1 ff ff ff ff 	mov    $0xffffffffffffffff,%rcx
  4020b2:	b8 00 00 00 00       	mov    $0x0,%eax
  4020b7:	f2 ae                	repnz scas %es:(%rdi),%al
  4020b9:	48 89 ce             	mov    %rcx,%rsi
  4020bc:	48 f7 d6             	not    %rsi
  4020bf:	8d 46 ff             	lea    -0x1(%rsi),%eax
  4020c2:	eb 0e                	jmp    4020d2 <urlencode+0x35>
  4020c4:	88 55 00             	mov    %dl,0x0(%rbp)
  4020c7:	48 8d 6d 01          	lea    0x1(%rbp),%rbp
  4020cb:	48 83 c3 01          	add    $0x1,%rbx
  4020cf:	44 89 e0             	mov    %r12d,%eax
  4020d2:	44 8d 60 ff          	lea    -0x1(%rax),%r12d
  4020d6:	85 c0                	test   %eax,%eax
  4020d8:	0f 84 93 00 00 00    	je     402171 <urlencode+0xd4>
  4020de:	0f b6 13             	movzbl (%rbx),%edx
  4020e1:	80 fa 2a             	cmp    $0x2a,%dl
  4020e4:	0f 94 c1             	sete   %cl
  4020e7:	80 fa 2d             	cmp    $0x2d,%dl
  4020ea:	0f 94 c0             	sete   %al
  4020ed:	08 c1                	or     %al,%cl
  4020ef:	75 d3                	jne    4020c4 <urlencode+0x27>
  4020f1:	80 fa 2e             	cmp    $0x2e,%dl
  4020f4:	74 ce                	je     4020c4 <urlencode+0x27>
  4020f6:	80 fa 5f             	cmp    $0x5f,%dl
  4020f9:	74 c9                	je     4020c4 <urlencode+0x27>
  4020fb:	8d 42 d0             	lea    -0x30(%rdx),%eax
  4020fe:	3c 09                	cmp    $0x9,%al
  402100:	76 c2                	jbe    4020c4 <urlencode+0x27>
  402102:	8d 42 bf             	lea    -0x41(%rdx),%eax
  402105:	3c 19                	cmp    $0x19,%al
  402107:	76 bb                	jbe    4020c4 <urlencode+0x27>
  402109:	8d 42 9f             	lea    -0x61(%rdx),%eax
  40210c:	3c 19                	cmp    $0x19,%al
  40210e:	76 b4                	jbe    4020c4 <urlencode+0x27>
  402110:	80 fa 20             	cmp    $0x20,%dl
  402113:	74 4a                	je     40215f <urlencode+0xc2>
  402115:	8d 42 e0             	lea    -0x20(%rdx),%eax
  402118:	3c 5f                	cmp    $0x5f,%al
  40211a:	0f 96 c1             	setbe  %cl
  40211d:	80 fa 09             	cmp    $0x9,%dl
  402120:	0f 94 c0             	sete   %al
  402123:	08 c1                	or     %al,%cl
  402125:	74 45                	je     40216c <urlencode+0xcf>
  402127:	0f b6 d2             	movzbl %dl,%edx
  40212a:	be 08 37 40 00       	mov    $0x403708,%esi
  40212f:	48 8d 7c 24 08       	lea    0x8(%rsp),%rdi
  402134:	b8 00 00 00 00       	mov    $0x0,%eax
  402139:	e8 f2 ec ff ff       	callq  400e30 <sprintf@plt>
  40213e:	0f b6 44 24 08       	movzbl 0x8(%rsp),%eax
  402143:	88 45 00             	mov    %al,0x0(%rbp)
  402146:	0f b6 44 24 09       	movzbl 0x9(%rsp),%eax
  40214b:	88 45 01             	mov    %al,0x1(%rbp)
  40214e:	0f b6 44 24 0a       	movzbl 0xa(%rsp),%eax
  402153:	88 45 02             	mov    %al,0x2(%rbp)
  402156:	48 8d 6d 03          	lea    0x3(%rbp),%rbp
  40215a:	e9 6c ff ff ff       	jmpq   4020cb <urlencode+0x2e>
  40215f:	c6 45 00 2b          	movb   $0x2b,0x0(%rbp)
  402163:	48 8d 6d 01          	lea    0x1(%rbp),%rbp
  402167:	e9 5f ff ff ff       	jmpq   4020cb <urlencode+0x2e>
  40216c:	b8 ff ff ff ff       	mov    $0xffffffff,%eax
  402171:	48 83 c4 10          	add    $0x10,%rsp
  402175:	5b                   	pop    %rbx
  402176:	5d                   	pop    %rbp
  402177:	41 5c                	pop    %r12
  402179:	c3                   	retq   

000000000040217a <rio_writen>:
  40217a:	41 55                	push   %r13
  40217c:	41 54                	push   %r12
  40217e:	55                   	push   %rbp
  40217f:	53                   	push   %rbx
  402180:	48 83 ec 08          	sub    $0x8,%rsp
  402184:	41 89 fc             	mov    %edi,%r12d
  402187:	48 89 f5             	mov    %rsi,%rbp
  40218a:	49 89 d5             	mov    %rdx,%r13
  40218d:	48 89 d3             	mov    %rdx,%rbx
  402190:	eb 06                	jmp    402198 <rio_writen+0x1e>
  402192:	48 29 c3             	sub    %rax,%rbx
  402195:	48 01 c5             	add    %rax,%rbp
  402198:	48 85 db             	test   %rbx,%rbx
  40219b:	74 24                	je     4021c1 <rio_writen+0x47>
  40219d:	48 89 da             	mov    %rbx,%rdx
  4021a0:	48 89 ee             	mov    %rbp,%rsi
  4021a3:	44 89 e7             	mov    %r12d,%edi
  4021a6:	e8 35 eb ff ff       	callq  400ce0 <write@plt>
  4021ab:	48 85 c0             	test   %rax,%rax
  4021ae:	7f e2                	jg     402192 <rio_writen+0x18>
  4021b0:	e8 db ea ff ff       	callq  400c90 <__errno_location@plt>
  4021b5:	83 38 04             	cmpl   $0x4,(%rax)
  4021b8:	75 15                	jne    4021cf <rio_writen+0x55>
  4021ba:	b8 00 00 00 00       	mov    $0x0,%eax
  4021bf:	eb d1                	jmp    402192 <rio_writen+0x18>
  4021c1:	4c 89 e8             	mov    %r13,%rax
  4021c4:	48 83 c4 08          	add    $0x8,%rsp
  4021c8:	5b                   	pop    %rbx
  4021c9:	5d                   	pop    %rbp
  4021ca:	41 5c                	pop    %r12
  4021cc:	41 5d                	pop    %r13
  4021ce:	c3                   	retq   
  4021cf:	48 c7 c0 ff ff ff ff 	mov    $0xffffffffffffffff,%rax
  4021d6:	eb ec                	jmp    4021c4 <rio_writen+0x4a>

00000000004021d8 <rio_read>:
  4021d8:	41 55                	push   %r13
  4021da:	41 54                	push   %r12
  4021dc:	55                   	push   %rbp
  4021dd:	53                   	push   %rbx
  4021de:	48 83 ec 08          	sub    $0x8,%rsp
  4021e2:	48 89 fb             	mov    %rdi,%rbx
  4021e5:	49 89 f5             	mov    %rsi,%r13
  4021e8:	49 89 d4             	mov    %rdx,%r12
  4021eb:	eb 0a                	jmp    4021f7 <rio_read+0x1f>
  4021ed:	e8 9e ea ff ff       	callq  400c90 <__errno_location@plt>
  4021f2:	83 38 04             	cmpl   $0x4,(%rax)
  4021f5:	75 5a                	jne    402251 <rio_read+0x79>
  4021f7:	8b 6b 04             	mov    0x4(%rbx),%ebp
  4021fa:	85 ed                	test   %ebp,%ebp
  4021fc:	7f 22                	jg     402220 <rio_read+0x48>
  4021fe:	48 8d 6b 10          	lea    0x10(%rbx),%rbp
  402202:	ba 00 20 00 00       	mov    $0x2000,%edx
  402207:	48 89 ee             	mov    %rbp,%rsi
  40220a:	8b 3b                	mov    (%rbx),%edi
  40220c:	e8 2f eb ff ff       	callq  400d40 <read@plt>
  402211:	89 43 04             	mov    %eax,0x4(%rbx)
  402214:	85 c0                	test   %eax,%eax
  402216:	78 d5                	js     4021ed <rio_read+0x15>
  402218:	74 40                	je     40225a <rio_read+0x82>
  40221a:	48 89 6b 08          	mov    %rbp,0x8(%rbx)
  40221e:	eb d7                	jmp    4021f7 <rio_read+0x1f>
  402220:	89 e8                	mov    %ebp,%eax
  402222:	4c 39 e0             	cmp    %r12,%rax
  402225:	72 03                	jb     40222a <rio_read+0x52>
  402227:	44 89 e5             	mov    %r12d,%ebp
  40222a:	4c 63 e5             	movslq %ebp,%r12
  40222d:	48 8b 73 08          	mov    0x8(%rbx),%rsi
  402231:	4c 89 e2             	mov    %r12,%rdx
  402234:	4c 89 ef             	mov    %r13,%rdi
  402237:	e8 54 eb ff ff       	callq  400d90 <memcpy@plt>
  40223c:	4c 01 63 08          	add    %r12,0x8(%rbx)
  402240:	29 6b 04             	sub    %ebp,0x4(%rbx)
  402243:	4c 89 e0             	mov    %r12,%rax
  402246:	48 83 c4 08          	add    $0x8,%rsp
  40224a:	5b                   	pop    %rbx
  40224b:	5d                   	pop    %rbp
  40224c:	41 5c                	pop    %r12
  40224e:	41 5d                	pop    %r13
  402250:	c3                   	retq   
  402251:	48 c7 c0 ff ff ff ff 	mov    $0xffffffffffffffff,%rax
  402258:	eb ec                	jmp    402246 <rio_read+0x6e>
  40225a:	b8 00 00 00 00       	mov    $0x0,%eax
  40225f:	eb e5                	jmp    402246 <rio_read+0x6e>

0000000000402261 <rio_readlineb>:
  402261:	41 55                	push   %r13
  402263:	41 54                	push   %r12
  402265:	55                   	push   %rbp
  402266:	53                   	push   %rbx
  402267:	48 83 ec 18          	sub    $0x18,%rsp
  40226b:	49 89 fd             	mov    %rdi,%r13
  40226e:	48 89 f5             	mov    %rsi,%rbp
  402271:	49 89 d4             	mov    %rdx,%r12
  402274:	bb 01 00 00 00       	mov    $0x1,%ebx
  402279:	4c 39 e3             	cmp    %r12,%rbx
  40227c:	73 44                	jae    4022c2 <rio_readlineb+0x61>
  40227e:	ba 01 00 00 00       	mov    $0x1,%edx
  402283:	48 8d 74 24 0f       	lea    0xf(%rsp),%rsi
  402288:	4c 89 ef             	mov    %r13,%rdi
  40228b:	e8 48 ff ff ff       	callq  4021d8 <rio_read>
  402290:	83 f8 01             	cmp    $0x1,%eax
  402293:	75 19                	jne    4022ae <rio_readlineb+0x4d>
  402295:	48 8d 55 01          	lea    0x1(%rbp),%rdx
  402299:	0f b6 44 24 0f       	movzbl 0xf(%rsp),%eax
  40229e:	88 45 00             	mov    %al,0x0(%rbp)
  4022a1:	3c 0a                	cmp    $0xa,%al
  4022a3:	74 1a                	je     4022bf <rio_readlineb+0x5e>
  4022a5:	48 83 c3 01          	add    $0x1,%rbx
  4022a9:	48 89 d5             	mov    %rdx,%rbp
  4022ac:	eb cb                	jmp    402279 <rio_readlineb+0x18>
  4022ae:	85 c0                	test   %eax,%eax
  4022b0:	75 22                	jne    4022d4 <rio_readlineb+0x73>
  4022b2:	48 83 fb 01          	cmp    $0x1,%rbx
  4022b6:	75 0a                	jne    4022c2 <rio_readlineb+0x61>
  4022b8:	b8 00 00 00 00       	mov    $0x0,%eax
  4022bd:	eb 0a                	jmp    4022c9 <rio_readlineb+0x68>
  4022bf:	48 89 d5             	mov    %rdx,%rbp
  4022c2:	c6 45 00 00          	movb   $0x0,0x0(%rbp)
  4022c6:	48 89 d8             	mov    %rbx,%rax
  4022c9:	48 83 c4 18          	add    $0x18,%rsp
  4022cd:	5b                   	pop    %rbx
  4022ce:	5d                   	pop    %rbp
  4022cf:	41 5c                	pop    %r12
  4022d1:	41 5d                	pop    %r13
  4022d3:	c3                   	retq   
  4022d4:	48 c7 c0 ff ff ff ff 	mov    $0xffffffffffffffff,%rax
  4022db:	eb ec                	jmp    4022c9 <rio_readlineb+0x68>

00000000004022dd <submitr>:
  4022dd:	41 57                	push   %r15
  4022df:	41 56                	push   %r14
  4022e1:	41 55                	push   %r13
  4022e3:	41 54                	push   %r12
  4022e5:	55                   	push   %rbp
  4022e6:	53                   	push   %rbx
  4022e7:	48 81 ec 48 a0 00 00 	sub    $0xa048,%rsp
  4022ee:	49 89 fc             	mov    %rdi,%r12
  4022f1:	89 74 24 04          	mov    %esi,0x4(%rsp)
  4022f5:	49 89 d7             	mov    %rdx,%r15
  4022f8:	49 89 ce             	mov    %rcx,%r14
  4022fb:	4c 89 44 24 08       	mov    %r8,0x8(%rsp)
  402300:	4d 89 cd             	mov    %r9,%r13
  402303:	48 8b ac 24 80 a0 00 	mov    0xa080(%rsp),%rbp
  40230a:	00 
  40230b:	c7 84 24 1c 20 00 00 	movl   $0x0,0x201c(%rsp)
  402312:	00 00 00 00 
  402316:	ba 00 00 00 00       	mov    $0x0,%edx
  40231b:	be 01 00 00 00       	mov    $0x1,%esi
  402320:	bf 02 00 00 00       	mov    $0x2,%edi
  402325:	e8 46 eb ff ff       	callq  400e70 <socket@plt>
  40232a:	85 c0                	test   %eax,%eax
  40232c:	0f 88 8f 02 00 00    	js     4025c1 <submitr+0x2e4>
  402332:	89 c3                	mov    %eax,%ebx
  402334:	4c 89 e7             	mov    %r12,%rdi
  402337:	e8 24 ea ff ff       	callq  400d60 <gethostbyname@plt>
  40233c:	48 85 c0             	test   %rax,%rax
  40233f:	0f 84 c8 02 00 00    	je     40260d <submitr+0x330>
  402345:	48 c7 84 24 32 a0 00 	movq   $0x0,0xa032(%rsp)
  40234c:	00 00 00 00 00 
  402351:	c7 84 24 3a a0 00 00 	movl   $0x0,0xa03a(%rsp)
  402358:	00 00 00 00 
  40235c:	66 c7 84 24 3e a0 00 	movw   $0x0,0xa03e(%rsp)
  402363:	00 00 00 
  402366:	66 c7 84 24 30 a0 00 	movw   $0x2,0xa030(%rsp)
  40236d:	00 02 00 
  402370:	48 8b 48 18          	mov    0x18(%rax),%rcx
  402374:	48 63 50 14          	movslq 0x14(%rax),%rdx
  402378:	48 8d bc 24 34 a0 00 	lea    0xa034(%rsp),%rdi
  40237f:	00 
  402380:	48 8b 31             	mov    (%rcx),%rsi
  402383:	e8 58 ea ff ff       	callq  400de0 <memmove@plt>
  402388:	0f b7 44 24 04       	movzwl 0x4(%rsp),%eax
  40238d:	66 c1 c0 08          	rol    $0x8,%ax
  402391:	66 89 84 24 32 a0 00 	mov    %ax,0xa032(%rsp)
  402398:	00 
  402399:	ba 10 00 00 00       	mov    $0x10,%edx
  40239e:	48 8d b4 24 30 a0 00 	lea    0xa030(%rsp),%rsi
  4023a5:	00 
  4023a6:	89 df                	mov    %ebx,%edi
  4023a8:	e8 a3 ea ff ff       	callq  400e50 <connect@plt>
  4023ad:	85 c0                	test   %eax,%eax
  4023af:	0f 88 c0 02 00 00    	js     402675 <submitr+0x398>
  4023b5:	48 c7 c6 ff ff ff ff 	mov    $0xffffffffffffffff,%rsi
  4023bc:	b8 00 00 00 00       	mov    $0x0,%eax
  4023c1:	48 89 f1             	mov    %rsi,%rcx
  4023c4:	4c 89 ef             	mov    %r13,%rdi
  4023c7:	f2 ae                	repnz scas %es:(%rdi),%al
  4023c9:	48 89 ca             	mov    %rcx,%rdx
  4023cc:	48 f7 d2             	not    %rdx
  4023cf:	48 89 f1             	mov    %rsi,%rcx
  4023d2:	4c 89 ff             	mov    %r15,%rdi
  4023d5:	f2 ae                	repnz scas %es:(%rdi),%al
  4023d7:	48 f7 d1             	not    %rcx
  4023da:	49 89 c8             	mov    %rcx,%r8
  4023dd:	48 89 f1             	mov    %rsi,%rcx
  4023e0:	4c 89 f7             	mov    %r14,%rdi
  4023e3:	f2 ae                	repnz scas %es:(%rdi),%al
  4023e5:	48 f7 d1             	not    %rcx
  4023e8:	4d 8d 44 08 fe       	lea    -0x2(%r8,%rcx,1),%r8
  4023ed:	48 89 f1             	mov    %rsi,%rcx
  4023f0:	48 8b 7c 24 08       	mov    0x8(%rsp),%rdi
  4023f5:	f2 ae                	repnz scas %es:(%rdi),%al
  4023f7:	48 89 c8             	mov    %rcx,%rax
  4023fa:	48 f7 d0             	not    %rax
  4023fd:	49 8d 4c 00 ff       	lea    -0x1(%r8,%rax,1),%rcx
  402402:	48 8d 44 52 fd       	lea    -0x3(%rdx,%rdx,2),%rax
  402407:	48 8d 84 01 80 00 00 	lea    0x80(%rcx,%rax,1),%rax
  40240e:	00 
  40240f:	48 3d 00 20 00 00    	cmp    $0x2000,%rax
  402415:	0f 87 b4 02 00 00    	ja     4026cf <submitr+0x3f2>
  40241b:	48 8d b4 24 20 40 00 	lea    0x4020(%rsp),%rsi
  402422:	00 
  402423:	b9 00 04 00 00       	mov    $0x400,%ecx
  402428:	b8 00 00 00 00       	mov    $0x0,%eax
  40242d:	48 89 f7             	mov    %rsi,%rdi
  402430:	f3 48 ab             	rep stos %rax,%es:(%rdi)
  402433:	4c 89 ef             	mov    %r13,%rdi
  402436:	e8 62 fc ff ff       	callq  40209d <urlencode>
  40243b:	85 c0                	test   %eax,%eax
  40243d:	0f 88 ff 02 00 00    	js     402742 <submitr+0x465>
  402443:	4c 8d ac 24 20 60 00 	lea    0x6020(%rsp),%r13
  40244a:	00 
  40244b:	4d 89 e1             	mov    %r12,%r9
  40244e:	4c 8d 84 24 20 40 00 	lea    0x4020(%rsp),%r8
  402455:	00 
  402456:	4c 89 f9             	mov    %r15,%rcx
  402459:	4c 89 f2             	mov    %r14,%rdx
  40245c:	be 98 36 40 00       	mov    $0x403698,%esi
  402461:	4c 89 ef             	mov    %r13,%rdi
  402464:	b8 00 00 00 00       	mov    $0x0,%eax
  402469:	e8 c2 e9 ff ff       	callq  400e30 <sprintf@plt>
  40246e:	48 c7 c1 ff ff ff ff 	mov    $0xffffffffffffffff,%rcx
  402475:	b8 00 00 00 00       	mov    $0x0,%eax
  40247a:	4c 89 ef             	mov    %r13,%rdi
  40247d:	f2 ae                	repnz scas %es:(%rdi),%al
  40247f:	48 89 ca             	mov    %rcx,%rdx
  402482:	48 f7 d2             	not    %rdx
  402485:	48 8d 52 ff          	lea    -0x1(%rdx),%rdx
  402489:	4c 89 ee             	mov    %r13,%rsi
  40248c:	89 df                	mov    %ebx,%edi
  40248e:	e8 e7 fc ff ff       	callq  40217a <rio_writen>
  402493:	48 85 c0             	test   %rax,%rax
  402496:	0f 88 31 03 00 00    	js     4027cd <submitr+0x4f0>
  40249c:	89 de                	mov    %ebx,%esi
  40249e:	48 8d bc 24 20 80 00 	lea    0x8020(%rsp),%rdi
  4024a5:	00 
  4024a6:	e8 b7 fb ff ff       	callq  402062 <rio_readinitb>
  4024ab:	ba 00 20 00 00       	mov    $0x2000,%edx
  4024b0:	48 8d b4 24 20 60 00 	lea    0x6020(%rsp),%rsi
  4024b7:	00 
  4024b8:	48 8d bc 24 20 80 00 	lea    0x8020(%rsp),%rdi
  4024bf:	00 
  4024c0:	e8 9c fd ff ff       	callq  402261 <rio_readlineb>
  4024c5:	48 85 c0             	test   %rax,%rax
  4024c8:	0f 8e 6e 03 00 00    	jle    40283c <submitr+0x55f>
  4024ce:	4c 8d 44 24 10       	lea    0x10(%rsp),%r8
  4024d3:	48 8d 8c 24 1c 20 00 	lea    0x201c(%rsp),%rcx
  4024da:	00 
  4024db:	48 8d 94 24 20 20 00 	lea    0x2020(%rsp),%rdx
  4024e2:	00 
  4024e3:	be 0f 37 40 00       	mov    $0x40370f,%esi
  4024e8:	48 8d bc 24 20 60 00 	lea    0x6020(%rsp),%rdi
  4024ef:	00 
  4024f0:	b8 00 00 00 00       	mov    $0x0,%eax
  4024f5:	e8 c6 e8 ff ff       	callq  400dc0 <__isoc99_sscanf@plt>
  4024fa:	48 8d b4 24 20 60 00 	lea    0x6020(%rsp),%rsi
  402501:	00 
  402502:	bf 26 37 40 00       	mov    $0x403726,%edi
  402507:	b9 03 00 00 00       	mov    $0x3,%ecx
  40250c:	f3 a6                	repz cmpsb %es:(%rdi),%ds:(%rsi)
  40250e:	0f 97 c0             	seta   %al
  402511:	1c 00                	sbb    $0x0,%al
  402513:	84 c0                	test   %al,%al
  402515:	0f 84 9f 03 00 00    	je     4028ba <submitr+0x5dd>
  40251b:	ba 00 20 00 00       	mov    $0x2000,%edx
  402520:	48 8d b4 24 20 60 00 	lea    0x6020(%rsp),%rsi
  402527:	00 
  402528:	48 8d bc 24 20 80 00 	lea    0x8020(%rsp),%rdi
  40252f:	00 
  402530:	e8 2c fd ff ff       	callq  402261 <rio_readlineb>
  402535:	48 85 c0             	test   %rax,%rax
  402538:	7f c0                	jg     4024fa <submitr+0x21d>
  40253a:	48 b8 45 72 72 6f 72 	movabs $0x43203a726f727245,%rax
  402541:	3a 20 43 
  402544:	48 ba 6c 69 65 6e 74 	movabs $0x6e7520746e65696c,%rdx
  40254b:	20 75 6e 
  40254e:	48 89 45 00          	mov    %rax,0x0(%rbp)
  402552:	48 89 55 08          	mov    %rdx,0x8(%rbp)
  402556:	48 b8 61 62 6c 65 20 	movabs $0x206f7420656c6261,%rax
  40255d:	74 6f 20 
  402560:	48 ba 72 65 61 64 20 	movabs $0x6165682064616572,%rdx
  402567:	68 65 61 
  40256a:	48 89 45 10          	mov    %rax,0x10(%rbp)
  40256e:	48 89 55 18          	mov    %rdx,0x18(%rbp)
  402572:	48 b8 64 65 72 73 20 	movabs $0x6f72662073726564,%rax
  402579:	66 72 6f 
  40257c:	48 ba 6d 20 74 68 65 	movabs $0x657220656874206d,%rdx
  402583:	20 72 65 
  402586:	48 89 45 20          	mov    %rax,0x20(%rbp)
  40258a:	48 89 55 28          	mov    %rdx,0x28(%rbp)
  40258e:	48 b8 73 75 6c 74 20 	movabs $0x72657320746c7573,%rax
  402595:	73 65 72 
  402598:	48 89 45 30          	mov    %rax,0x30(%rbp)
  40259c:	c7 45 38 76 65 72 00 	movl   $0x726576,0x38(%rbp)
  4025a3:	89 df                	mov    %ebx,%edi
  4025a5:	e8 86 e7 ff ff       	callq  400d30 <close@plt>
  4025aa:	b8 ff ff ff ff       	mov    $0xffffffff,%eax
  4025af:	48 81 c4 48 a0 00 00 	add    $0xa048,%rsp
  4025b6:	5b                   	pop    %rbx
  4025b7:	5d                   	pop    %rbp
  4025b8:	41 5c                	pop    %r12
  4025ba:	41 5d                	pop    %r13
  4025bc:	41 5e                	pop    %r14
  4025be:	41 5f                	pop    %r15
  4025c0:	c3                   	retq   
  4025c1:	48 b8 45 72 72 6f 72 	movabs $0x43203a726f727245,%rax
  4025c8:	3a 20 43 
  4025cb:	48 ba 6c 69 65 6e 74 	movabs $0x6e7520746e65696c,%rdx
  4025d2:	20 75 6e 
  4025d5:	48 89 45 00          	mov    %rax,0x0(%rbp)
  4025d9:	48 89 55 08          	mov    %rdx,0x8(%rbp)
  4025dd:	48 b8 61 62 6c 65 20 	movabs $0x206f7420656c6261,%rax
  4025e4:	74 6f 20 
  4025e7:	48 ba 63 72 65 61 74 	movabs $0x7320657461657263,%rdx
  4025ee:	65 20 73 
  4025f1:	48 89 45 10          	mov    %rax,0x10(%rbp)
  4025f5:	48 89 55 18          	mov    %rdx,0x18(%rbp)
  4025f9:	c7 45 20 6f 63 6b 65 	movl   $0x656b636f,0x20(%rbp)
  402600:	66 c7 45 24 74 00    	movw   $0x74,0x24(%rbp)
  402606:	b8 ff ff ff ff       	mov    $0xffffffff,%eax
  40260b:	eb a2                	jmp    4025af <submitr+0x2d2>
  40260d:	48 b8 45 72 72 6f 72 	movabs $0x44203a726f727245,%rax
  402614:	3a 20 44 
  402617:	48 ba 4e 53 20 69 73 	movabs $0x6e7520736920534e,%rdx
  40261e:	20 75 6e 
  402621:	48 89 45 00          	mov    %rax,0x0(%rbp)
  402625:	48 89 55 08          	mov    %rdx,0x8(%rbp)
  402629:	48 b8 61 62 6c 65 20 	movabs $0x206f7420656c6261,%rax
  402630:	74 6f 20 
  402633:	48 ba 72 65 73 6f 6c 	movabs $0x2065766c6f736572,%rdx
  40263a:	76 65 20 
  40263d:	48 89 45 10          	mov    %rax,0x10(%rbp)
  402641:	48 89 55 18          	mov    %rdx,0x18(%rbp)
  402645:	48 b8 73 65 72 76 65 	movabs $0x6120726576726573,%rax
  40264c:	72 20 61 
  40264f:	48 89 45 20          	mov    %rax,0x20(%rbp)
  402653:	c7 45 28 64 64 72 65 	movl   $0x65726464,0x28(%rbp)
  40265a:	66 c7 45 2c 73 73    	movw   $0x7373,0x2c(%rbp)
  402660:	c6 45 2e 00          	movb   $0x0,0x2e(%rbp)
  402664:	89 df                	mov    %ebx,%edi
  402666:	e8 c5 e6 ff ff       	callq  400d30 <close@plt>
  40266b:	b8 ff ff ff ff       	mov    $0xffffffff,%eax
  402670:	e9 3a ff ff ff       	jmpq   4025af <submitr+0x2d2>
  402675:	48 b8 45 72 72 6f 72 	movabs $0x55203a726f727245,%rax
  40267c:	3a 20 55 
  40267f:	48 ba 6e 61 62 6c 65 	movabs $0x6f7420656c62616e,%rdx
  402686:	20 74 6f 
  402689:	48 89 45 00          	mov    %rax,0x0(%rbp)
  40268d:	48 89 55 08          	mov    %rdx,0x8(%rbp)
  402691:	48 b8 20 63 6f 6e 6e 	movabs $0x7463656e6e6f6320,%rax
  402698:	65 63 74 
  40269b:	48 ba 20 74 6f 20 74 	movabs $0x20656874206f7420,%rdx
  4026a2:	68 65 20 
  4026a5:	48 89 45 10          	mov    %rax,0x10(%rbp)
  4026a9:	48 89 55 18          	mov    %rdx,0x18(%rbp)
  4026ad:	c7 45 20 73 65 72 76 	movl   $0x76726573,0x20(%rbp)
  4026b4:	66 c7 45 24 65 72    	movw   $0x7265,0x24(%rbp)
  4026ba:	c6 45 26 00          	movb   $0x0,0x26(%rbp)
  4026be:	89 df                	mov    %ebx,%edi
  4026c0:	e8 6b e6 ff ff       	callq  400d30 <close@plt>
  4026c5:	b8 ff ff ff ff       	mov    $0xffffffff,%eax
  4026ca:	e9 e0 fe ff ff       	jmpq   4025af <submitr+0x2d2>
  4026cf:	48 b8 45 72 72 6f 72 	movabs $0x52203a726f727245,%rax
  4026d6:	3a 20 52 
  4026d9:	48 ba 65 73 75 6c 74 	movabs $0x747320746c757365,%rdx
  4026e0:	20 73 74 
  4026e3:	48 89 45 00          	mov    %rax,0x0(%rbp)
  4026e7:	48 89 55 08          	mov    %rdx,0x8(%rbp)
  4026eb:	48 b8 72 69 6e 67 20 	movabs $0x6f6f7420676e6972,%rax
  4026f2:	74 6f 6f 
  4026f5:	48 ba 20 6c 61 72 67 	movabs $0x202e656772616c20,%rdx
  4026fc:	65 2e 20 
  4026ff:	48 89 45 10          	mov    %rax,0x10(%rbp)
  402703:	48 89 55 18          	mov    %rdx,0x18(%rbp)
  402707:	48 b8 49 6e 63 72 65 	movabs $0x6573616572636e49,%rax
  40270e:	61 73 65 
  402711:	48 ba 20 53 55 42 4d 	movabs $0x5254494d42555320,%rdx
  402718:	49 54 52 
  40271b:	48 89 45 20          	mov    %rax,0x20(%rbp)
  40271f:	48 89 55 28          	mov    %rdx,0x28(%rbp)
  402723:	48 b8 5f 4d 41 58 42 	movabs $0x46554258414d5f,%rax
  40272a:	55 46 00 
  40272d:	48 89 45 30          	mov    %rax,0x30(%rbp)
  402731:	89 df                	mov    %ebx,%edi
  402733:	e8 f8 e5 ff ff       	callq  400d30 <close@plt>
  402738:	b8 ff ff ff ff       	mov    $0xffffffff,%eax
  40273d:	e9 6d fe ff ff       	jmpq   4025af <submitr+0x2d2>
  402742:	48 b8 45 72 72 6f 72 	movabs $0x52203a726f727245,%rax
  402749:	3a 20 52 
  40274c:	48 ba 65 73 75 6c 74 	movabs $0x747320746c757365,%rdx
  402753:	20 73 74 
  402756:	48 89 45 00          	mov    %rax,0x0(%rbp)
  40275a:	48 89 55 08          	mov    %rdx,0x8(%rbp)
  40275e:	48 b8 72 69 6e 67 20 	movabs $0x6e6f6320676e6972,%rax
  402765:	63 6f 6e 
  402768:	48 ba 74 61 69 6e 73 	movabs $0x6e6120736e696174,%rdx
  40276f:	20 61 6e 
  402772:	48 89 45 10          	mov    %rax,0x10(%rbp)
  402776:	48 89 55 18          	mov    %rdx,0x18(%rbp)
  40277a:	48 b8 20 69 6c 6c 65 	movabs $0x6c6167656c6c6920,%rax
  402781:	67 61 6c 
  402784:	48 ba 20 6f 72 20 75 	movabs $0x72706e7520726f20,%rdx
  40278b:	6e 70 72 
  40278e:	48 89 45 20          	mov    %rax,0x20(%rbp)
  402792:	48 89 55 28          	mov    %rdx,0x28(%rbp)
  402796:	48 b8 69 6e 74 61 62 	movabs $0x20656c6261746e69,%rax
  40279d:	6c 65 20 
  4027a0:	48 ba 63 68 61 72 61 	movabs $0x6574636172616863,%rdx
  4027a7:	63 74 65 
  4027aa:	48 89 45 30          	mov    %rax,0x30(%rbp)
  4027ae:	48 89 55 38          	mov    %rdx,0x38(%rbp)
  4027b2:	66 c7 45 40 72 2e    	movw   $0x2e72,0x40(%rbp)
  4027b8:	c6 45 42 00          	movb   $0x0,0x42(%rbp)
  4027bc:	89 df                	mov    %ebx,%edi
  4027be:	e8 6d e5 ff ff       	callq  400d30 <close@plt>
  4027c3:	b8 ff ff ff ff       	mov    $0xffffffff,%eax
  4027c8:	e9 e2 fd ff ff       	jmpq   4025af <submitr+0x2d2>
  4027cd:	48 b8 45 72 72 6f 72 	movabs $0x43203a726f727245,%rax
  4027d4:	3a 20 43 
  4027d7:	48 ba 6c 69 65 6e 74 	movabs $0x6e7520746e65696c,%rdx
  4027de:	20 75 6e 
  4027e1:	48 89 45 00          	mov    %rax,0x0(%rbp)
  4027e5:	48 89 55 08          	mov    %rdx,0x8(%rbp)
  4027e9:	48 b8 61 62 6c 65 20 	movabs $0x206f7420656c6261,%rax
  4027f0:	74 6f 20 
  4027f3:	48 ba 77 72 69 74 65 	movabs $0x6f74206574697277,%rdx
  4027fa:	20 74 6f 
  4027fd:	48 89 45 10          	mov    %rax,0x10(%rbp)
  402801:	48 89 55 18          	mov    %rdx,0x18(%rbp)
  402805:	48 b8 20 74 68 65 20 	movabs $0x7365722065687420,%rax
  40280c:	72 65 73 
  40280f:	48 ba 75 6c 74 20 73 	movabs $0x7672657320746c75,%rdx
  402816:	65 72 76 
  402819:	48 89 45 20          	mov    %rax,0x20(%rbp)
  40281d:	48 89 55 28          	mov    %rdx,0x28(%rbp)
  402821:	66 c7 45 30 65 72    	movw   $0x7265,0x30(%rbp)
  402827:	c6 45 32 00          	movb   $0x0,0x32(%rbp)
  40282b:	89 df                	mov    %ebx,%edi
  40282d:	e8 fe e4 ff ff       	callq  400d30 <close@plt>
  402832:	b8 ff ff ff ff       	mov    $0xffffffff,%eax
  402837:	e9 73 fd ff ff       	jmpq   4025af <submitr+0x2d2>
  40283c:	48 b8 45 72 72 6f 72 	movabs $0x43203a726f727245,%rax
  402843:	3a 20 43 
  402846:	48 ba 6c 69 65 6e 74 	movabs $0x6e7520746e65696c,%rdx
  40284d:	20 75 6e 
  402850:	48 89 45 00          	mov    %rax,0x0(%rbp)
  402854:	48 89 55 08          	mov    %rdx,0x8(%rbp)
  402858:	48 b8 61 62 6c 65 20 	movabs $0x206f7420656c6261,%rax
  40285f:	74 6f 20 
  402862:	48 ba 72 65 61 64 20 	movabs $0x7269662064616572,%rdx
  402869:	66 69 72 
  40286c:	48 89 45 10          	mov    %rax,0x10(%rbp)
  402870:	48 89 55 18          	mov    %rdx,0x18(%rbp)
  402874:	48 b8 73 74 20 68 65 	movabs $0x6564616568207473,%rax
  40287b:	61 64 65 
  40287e:	48 ba 72 20 66 72 6f 	movabs $0x72206d6f72662072,%rdx
  402885:	6d 20 72 
  402888:	48 89 45 20          	mov    %rax,0x20(%rbp)
  40288c:	48 89 55 28          	mov    %rdx,0x28(%rbp)
  402890:	48 b8 65 73 75 6c 74 	movabs $0x657320746c757365,%rax
  402897:	20 73 65 
  40289a:	48 89 45 30          	mov    %rax,0x30(%rbp)
  40289e:	c7 45 38 72 76 65 72 	movl   $0x72657672,0x38(%rbp)
  4028a5:	c6 45 3c 00          	movb   $0x0,0x3c(%rbp)
  4028a9:	89 df                	mov    %ebx,%edi
  4028ab:	e8 80 e4 ff ff       	callq  400d30 <close@plt>
  4028b0:	b8 ff ff ff ff       	mov    $0xffffffff,%eax
  4028b5:	e9 f5 fc ff ff       	jmpq   4025af <submitr+0x2d2>
  4028ba:	ba 00 20 00 00       	mov    $0x2000,%edx
  4028bf:	48 8d b4 24 20 60 00 	lea    0x6020(%rsp),%rsi
  4028c6:	00 
  4028c7:	48 8d bc 24 20 80 00 	lea    0x8020(%rsp),%rdi
  4028ce:	00 
  4028cf:	e8 8d f9 ff ff       	callq  402261 <rio_readlineb>
  4028d4:	48 85 c0             	test   %rax,%rax
  4028d7:	0f 8e 91 00 00 00    	jle    40296e <submitr+0x691>
  4028dd:	8b 94 24 1c 20 00 00 	mov    0x201c(%rsp),%edx
  4028e4:	81 fa c8 00 00 00    	cmp    $0xc8,%edx
  4028ea:	0f 85 02 01 00 00    	jne    4029f2 <submitr+0x715>
  4028f0:	48 8d b4 24 20 60 00 	lea    0x6020(%rsp),%rsi
  4028f7:	00 
  4028f8:	48 89 ef             	mov    %rbp,%rdi
  4028fb:	e8 c0 e3 ff ff       	callq  400cc0 <strcpy@plt>
  402900:	89 df                	mov    %ebx,%edi
  402902:	e8 29 e4 ff ff       	callq  400d30 <close@plt>
  402907:	bf 20 37 40 00       	mov    $0x403720,%edi
  40290c:	b9 04 00 00 00       	mov    $0x4,%ecx
  402911:	48 89 ee             	mov    %rbp,%rsi
  402914:	f3 a6                	repz cmpsb %es:(%rdi),%ds:(%rsi)
  402916:	0f 97 c0             	seta   %al
  402919:	1c 00                	sbb    $0x0,%al
  40291b:	0f be c0             	movsbl %al,%eax
  40291e:	85 c0                	test   %eax,%eax
  402920:	0f 84 89 fc ff ff    	je     4025af <submitr+0x2d2>
  402926:	bf 24 37 40 00       	mov    $0x403724,%edi
  40292b:	b9 05 00 00 00       	mov    $0x5,%ecx
  402930:	48 89 ee             	mov    %rbp,%rsi
  402933:	f3 a6                	repz cmpsb %es:(%rdi),%ds:(%rsi)
  402935:	0f 97 c0             	seta   %al
  402938:	1c 00                	sbb    $0x0,%al
  40293a:	0f be c0             	movsbl %al,%eax
  40293d:	85 c0                	test   %eax,%eax
  40293f:	0f 84 6a fc ff ff    	je     4025af <submitr+0x2d2>
  402945:	bf 29 37 40 00       	mov    $0x403729,%edi
  40294a:	b9 03 00 00 00       	mov    $0x3,%ecx
  40294f:	48 89 ee             	mov    %rbp,%rsi
  402952:	f3 a6                	repz cmpsb %es:(%rdi),%ds:(%rsi)
  402954:	0f 97 c0             	seta   %al
  402957:	1c 00                	sbb    $0x0,%al
  402959:	0f be c0             	movsbl %al,%eax
  40295c:	85 c0                	test   %eax,%eax
  40295e:	0f 84 4b fc ff ff    	je     4025af <submitr+0x2d2>
  402964:	b8 ff ff ff ff       	mov    $0xffffffff,%eax
  402969:	e9 41 fc ff ff       	jmpq   4025af <submitr+0x2d2>
  40296e:	48 b8 45 72 72 6f 72 	movabs $0x43203a726f727245,%rax
  402975:	3a 20 43 
  402978:	48 ba 6c 69 65 6e 74 	movabs $0x6e7520746e65696c,%rdx
  40297f:	20 75 6e 
  402982:	48 89 45 00          	mov    %rax,0x0(%rbp)
  402986:	48 89 55 08          	mov    %rdx,0x8(%rbp)
  40298a:	48 b8 61 62 6c 65 20 	movabs $0x206f7420656c6261,%rax
  402991:	74 6f 20 
  402994:	48 ba 72 65 61 64 20 	movabs $0x6174732064616572,%rdx
  40299b:	73 74 61 
  40299e:	48 89 45 10          	mov    %rax,0x10(%rbp)
  4029a2:	48 89 55 18          	mov    %rdx,0x18(%rbp)
  4029a6:	48 b8 74 75 73 20 6d 	movabs $0x7373656d20737574,%rax
  4029ad:	65 73 73 
  4029b0:	48 ba 61 67 65 20 66 	movabs $0x6d6f726620656761,%rdx
  4029b7:	72 6f 6d 
  4029ba:	48 89 45 20          	mov    %rax,0x20(%rbp)
  4029be:	48 89 55 28          	mov    %rdx,0x28(%rbp)
  4029c2:	48 b8 20 72 65 73 75 	movabs $0x20746c7573657220,%rax
  4029c9:	6c 74 20 
  4029cc:	48 89 45 30          	mov    %rax,0x30(%rbp)
  4029d0:	c7 45 38 73 65 72 76 	movl   $0x76726573,0x38(%rbp)
  4029d7:	66 c7 45 3c 65 72    	movw   $0x7265,0x3c(%rbp)
  4029dd:	c6 45 3e 00          	movb   $0x0,0x3e(%rbp)
  4029e1:	89 df                	mov    %ebx,%edi
  4029e3:	e8 48 e3 ff ff       	callq  400d30 <close@plt>
  4029e8:	b8 ff ff ff ff       	mov    $0xffffffff,%eax
  4029ed:	e9 bd fb ff ff       	jmpq   4025af <submitr+0x2d2>
  4029f2:	48 8d 4c 24 10       	lea    0x10(%rsp),%rcx
  4029f7:	be d8 36 40 00       	mov    $0x4036d8,%esi
  4029fc:	48 89 ef             	mov    %rbp,%rdi
  4029ff:	b8 00 00 00 00       	mov    $0x0,%eax
  402a04:	e8 27 e4 ff ff       	callq  400e30 <sprintf@plt>
  402a09:	89 df                	mov    %ebx,%edi
  402a0b:	e8 20 e3 ff ff       	callq  400d30 <close@plt>
  402a10:	b8 ff ff ff ff       	mov    $0xffffffff,%eax
  402a15:	e9 95 fb ff ff       	jmpq   4025af <submitr+0x2d2>

0000000000402a1a <init_timeout>:
  402a1a:	85 ff                	test   %edi,%edi
  402a1c:	74 24                	je     402a42 <init_timeout+0x28>
  402a1e:	53                   	push   %rbx
  402a1f:	89 fb                	mov    %edi,%ebx
  402a21:	78 18                	js     402a3b <init_timeout+0x21>
  402a23:	be 74 20 40 00       	mov    $0x402074,%esi
  402a28:	bf 0e 00 00 00       	mov    $0xe,%edi
  402a2d:	e8 1e e3 ff ff       	callq  400d50 <signal@plt>
  402a32:	89 df                	mov    %ebx,%edi
  402a34:	e8 e7 e2 ff ff       	callq  400d20 <alarm@plt>
  402a39:	5b                   	pop    %rbx
  402a3a:	c3                   	retq   
  402a3b:	bb 00 00 00 00       	mov    $0x0,%ebx
  402a40:	eb e1                	jmp    402a23 <init_timeout+0x9>
  402a42:	c3                   	retq   

0000000000402a43 <init_driver>:
  402a43:	55                   	push   %rbp
  402a44:	53                   	push   %rbx
  402a45:	48 83 ec 18          	sub    $0x18,%rsp
  402a49:	48 89 fd             	mov    %rdi,%rbp
  402a4c:	be 01 00 00 00       	mov    $0x1,%esi
  402a51:	bf 0d 00 00 00       	mov    $0xd,%edi
  402a56:	e8 f5 e2 ff ff       	callq  400d50 <signal@plt>
  402a5b:	be 01 00 00 00       	mov    $0x1,%esi
  402a60:	bf 1d 00 00 00       	mov    $0x1d,%edi
  402a65:	e8 e6 e2 ff ff       	callq  400d50 <signal@plt>
  402a6a:	be 01 00 00 00       	mov    $0x1,%esi
  402a6f:	bf 1d 00 00 00       	mov    $0x1d,%edi
  402a74:	e8 d7 e2 ff ff       	callq  400d50 <signal@plt>
  402a79:	ba 00 00 00 00       	mov    $0x0,%edx
  402a7e:	be 01 00 00 00       	mov    $0x1,%esi
  402a83:	bf 02 00 00 00       	mov    $0x2,%edi
  402a88:	e8 e3 e3 ff ff       	callq  400e70 <socket@plt>
  402a8d:	85 c0                	test   %eax,%eax
  402a8f:	0f 88 83 00 00 00    	js     402b18 <init_driver+0xd5>
  402a95:	89 c3                	mov    %eax,%ebx
  402a97:	bf 6a 32 40 00       	mov    $0x40326a,%edi
  402a9c:	e8 bf e2 ff ff       	callq  400d60 <gethostbyname@plt>
  402aa1:	48 85 c0             	test   %rax,%rax
  402aa4:	0f 84 ba 00 00 00    	je     402b64 <init_driver+0x121>
  402aaa:	48 c7 44 24 02 00 00 	movq   $0x0,0x2(%rsp)
  402ab1:	00 00 
  402ab3:	c7 44 24 0a 00 00 00 	movl   $0x0,0xa(%rsp)
  402aba:	00 
  402abb:	66 c7 44 24 0e 00 00 	movw   $0x0,0xe(%rsp)
  402ac2:	66 c7 04 24 02 00    	movw   $0x2,(%rsp)
  402ac8:	48 8b 48 18          	mov    0x18(%rax),%rcx
  402acc:	48 63 50 14          	movslq 0x14(%rax),%rdx
  402ad0:	48 8d 7c 24 04       	lea    0x4(%rsp),%rdi
  402ad5:	48 8b 31             	mov    (%rcx),%rsi
  402ad8:	e8 03 e3 ff ff       	callq  400de0 <memmove@plt>
  402add:	66 c7 44 24 02 3c 9a 	movw   $0x9a3c,0x2(%rsp)
  402ae4:	ba 10 00 00 00       	mov    $0x10,%edx
  402ae9:	48 89 e6             	mov    %rsp,%rsi
  402aec:	89 df                	mov    %ebx,%edi
  402aee:	e8 5d e3 ff ff       	callq  400e50 <connect@plt>
  402af3:	85 c0                	test   %eax,%eax
  402af5:	0f 88 d1 00 00 00    	js     402bcc <init_driver+0x189>
  402afb:	89 df                	mov    %ebx,%edi
  402afd:	e8 2e e2 ff ff       	callq  400d30 <close@plt>
  402b02:	66 c7 45 00 4f 4b    	movw   $0x4b4f,0x0(%rbp)
  402b08:	c6 45 02 00          	movb   $0x0,0x2(%rbp)
  402b0c:	b8 00 00 00 00       	mov    $0x0,%eax
  402b11:	48 83 c4 18          	add    $0x18,%rsp
  402b15:	5b                   	pop    %rbx
  402b16:	5d                   	pop    %rbp
  402b17:	c3                   	retq   
  402b18:	48 b8 45 72 72 6f 72 	movabs $0x43203a726f727245,%rax
  402b1f:	3a 20 43 
  402b22:	48 ba 6c 69 65 6e 74 	movabs $0x6e7520746e65696c,%rdx
  402b29:	20 75 6e 
  402b2c:	48 89 45 00          	mov    %rax,0x0(%rbp)
  402b30:	48 89 55 08          	mov    %rdx,0x8(%rbp)
  402b34:	48 b8 61 62 6c 65 20 	movabs $0x206f7420656c6261,%rax
  402b3b:	74 6f 20 
  402b3e:	48 ba 63 72 65 61 74 	movabs $0x7320657461657263,%rdx
  402b45:	65 20 73 
  402b48:	48 89 45 10          	mov    %rax,0x10(%rbp)
  402b4c:	48 89 55 18          	mov    %rdx,0x18(%rbp)
  402b50:	c7 45 20 6f 63 6b 65 	movl   $0x656b636f,0x20(%rbp)
  402b57:	66 c7 45 24 74 00    	movw   $0x74,0x24(%rbp)
  402b5d:	b8 ff ff ff ff       	mov    $0xffffffff,%eax
  402b62:	eb ad                	jmp    402b11 <init_driver+0xce>
  402b64:	48 b8 45 72 72 6f 72 	movabs $0x44203a726f727245,%rax
  402b6b:	3a 20 44 
  402b6e:	48 ba 4e 53 20 69 73 	movabs $0x6e7520736920534e,%rdx
  402b75:	20 75 6e 
  402b78:	48 89 45 00          	mov    %rax,0x0(%rbp)
  402b7c:	48 89 55 08          	mov    %rdx,0x8(%rbp)
  402b80:	48 b8 61 62 6c 65 20 	movabs $0x206f7420656c6261,%rax
  402b87:	74 6f 20 
  402b8a:	48 ba 72 65 73 6f 6c 	movabs $0x2065766c6f736572,%rdx
  402b91:	76 65 20 
  402b94:	48 89 45 10          	mov    %rax,0x10(%rbp)
  402b98:	48 89 55 18          	mov    %rdx,0x18(%rbp)
  402b9c:	48 b8 73 65 72 76 65 	movabs $0x6120726576726573,%rax
  402ba3:	72 20 61 
  402ba6:	48 89 45 20          	mov    %rax,0x20(%rbp)
  402baa:	c7 45 28 64 64 72 65 	movl   $0x65726464,0x28(%rbp)
  402bb1:	66 c7 45 2c 73 73    	movw   $0x7373,0x2c(%rbp)
  402bb7:	c6 45 2e 00          	movb   $0x0,0x2e(%rbp)
  402bbb:	89 df                	mov    %ebx,%edi
  402bbd:	e8 6e e1 ff ff       	callq  400d30 <close@plt>
  402bc2:	b8 ff ff ff ff       	mov    $0xffffffff,%eax
  402bc7:	e9 45 ff ff ff       	jmpq   402b11 <init_driver+0xce>
  402bcc:	48 b8 45 72 72 6f 72 	movabs $0x55203a726f727245,%rax
  402bd3:	3a 20 55 
  402bd6:	48 ba 6e 61 62 6c 65 	movabs $0x6f7420656c62616e,%rdx
  402bdd:	20 74 6f 
  402be0:	48 89 45 00          	mov    %rax,0x0(%rbp)
  402be4:	48 89 55 08          	mov    %rdx,0x8(%rbp)
  402be8:	48 b8 20 63 6f 6e 6e 	movabs $0x7463656e6e6f6320,%rax
  402bef:	65 63 74 
  402bf2:	48 ba 20 74 6f 20 73 	movabs $0x76726573206f7420,%rdx
  402bf9:	65 72 76 
  402bfc:	48 89 45 10          	mov    %rax,0x10(%rbp)
  402c00:	48 89 55 18          	mov    %rdx,0x18(%rbp)
  402c04:	66 c7 45 20 65 72    	movw   $0x7265,0x20(%rbp)
  402c0a:	c6 45 22 00          	movb   $0x0,0x22(%rbp)
  402c0e:	89 df                	mov    %ebx,%edi
  402c10:	e8 1b e1 ff ff       	callq  400d30 <close@plt>
  402c15:	b8 ff ff ff ff       	mov    $0xffffffff,%eax
  402c1a:	e9 f2 fe ff ff       	jmpq   402b11 <init_driver+0xce>

0000000000402c1f <driver_post>:
  402c1f:	53                   	push   %rbx
  402c20:	4c 89 cb             	mov    %r9,%rbx
  402c23:	45 85 c0             	test   %r8d,%r8d
  402c26:	75 18                	jne    402c40 <driver_post+0x21>
  402c28:	48 85 ff             	test   %rdi,%rdi
  402c2b:	74 05                	je     402c32 <driver_post+0x13>
  402c2d:	80 3f 00             	cmpb   $0x0,(%rdi)
  402c30:	75 30                	jne    402c62 <driver_post+0x43>
  402c32:	66 c7 03 4f 4b       	movw   $0x4b4f,(%rbx)
  402c37:	c6 43 02 00          	movb   $0x0,0x2(%rbx)
  402c3b:	44 89 c0             	mov    %r8d,%eax
  402c3e:	5b                   	pop    %rbx
  402c3f:	c3                   	retq   
  402c40:	48 89 ce             	mov    %rcx,%rsi
  402c43:	bf 2c 37 40 00       	mov    $0x40372c,%edi
  402c48:	b8 00 00 00 00       	mov    $0x0,%eax
  402c4d:	e8 ae e0 ff ff       	callq  400d00 <printf@plt>
  402c52:	66 c7 03 4f 4b       	movw   $0x4b4f,(%rbx)
  402c57:	c6 43 02 00          	movb   $0x0,0x2(%rbx)
  402c5b:	b8 00 00 00 00       	mov    $0x0,%eax
  402c60:	eb dc                	jmp    402c3e <driver_post+0x1f>
  402c62:	48 83 ec 08          	sub    $0x8,%rsp
  402c66:	41 51                	push   %r9
  402c68:	49 89 c9             	mov    %rcx,%r9
  402c6b:	49 89 d0             	mov    %rdx,%r8
  402c6e:	48 89 f9             	mov    %rdi,%rcx
  402c71:	48 89 f2             	mov    %rsi,%rdx
  402c74:	be 9a 3c 00 00       	mov    $0x3c9a,%esi
  402c79:	bf 6a 32 40 00       	mov    $0x40326a,%edi
  402c7e:	e8 5a f6 ff ff       	callq  4022dd <submitr>
  402c83:	48 83 c4 10          	add    $0x10,%rsp
  402c87:	eb b5                	jmp    402c3e <driver_post+0x1f>

0000000000402c89 <check>:
  402c89:	89 f8                	mov    %edi,%eax
  402c8b:	c1 e8 1c             	shr    $0x1c,%eax
  402c8e:	74 1d                	je     402cad <check+0x24>
  402c90:	b9 00 00 00 00       	mov    $0x0,%ecx
  402c95:	83 f9 1f             	cmp    $0x1f,%ecx
  402c98:	7f 0d                	jg     402ca7 <check+0x1e>
  402c9a:	89 f8                	mov    %edi,%eax
  402c9c:	d3 e8                	shr    %cl,%eax
  402c9e:	3c 0a                	cmp    $0xa,%al
  402ca0:	74 11                	je     402cb3 <check+0x2a>
  402ca2:	83 c1 08             	add    $0x8,%ecx
  402ca5:	eb ee                	jmp    402c95 <check+0xc>
  402ca7:	b8 01 00 00 00       	mov    $0x1,%eax
  402cac:	c3                   	retq   
  402cad:	b8 00 00 00 00       	mov    $0x0,%eax
  402cb2:	c3                   	retq   
  402cb3:	b8 00 00 00 00       	mov    $0x0,%eax
  402cb8:	c3                   	retq   

0000000000402cb9 <gencookie>:
  402cb9:	53                   	push   %rbx
  402cba:	83 c7 01             	add    $0x1,%edi
  402cbd:	e8 de df ff ff       	callq  400ca0 <srandom@plt>
  402cc2:	e8 e9 e0 ff ff       	callq  400db0 <random@plt>
  402cc7:	89 c3                	mov    %eax,%ebx
  402cc9:	89 c7                	mov    %eax,%edi
  402ccb:	e8 b9 ff ff ff       	callq  402c89 <check>
  402cd0:	85 c0                	test   %eax,%eax
  402cd2:	74 ee                	je     402cc2 <gencookie+0x9>
  402cd4:	89 d8                	mov    %ebx,%eax
  402cd6:	5b                   	pop    %rbx
  402cd7:	c3                   	retq   
  402cd8:	0f 1f 84 00 00 00 00 	nopl   0x0(%rax,%rax,1)
  402cdf:	00 

0000000000402ce0 <__libc_csu_init>:
  402ce0:	f3 0f 1e fa          	endbr64 
  402ce4:	41 57                	push   %r15
  402ce6:	49 89 d7             	mov    %rdx,%r15
  402ce9:	41 56                	push   %r14
  402ceb:	49 89 f6             	mov    %rsi,%r14
  402cee:	41 55                	push   %r13
  402cf0:	41 89 fd             	mov    %edi,%r13d
  402cf3:	41 54                	push   %r12
  402cf5:	4c 8d 25 04 21 20 00 	lea    0x202104(%rip),%r12        # 604e00 <__frame_dummy_init_array_entry>
  402cfc:	55                   	push   %rbp
  402cfd:	48 8d 2d 04 21 20 00 	lea    0x202104(%rip),%rbp        # 604e08 <__init_array_end>
  402d04:	53                   	push   %rbx
  402d05:	4c 29 e5             	sub    %r12,%rbp
  402d08:	48 83 ec 08          	sub    $0x8,%rsp
  402d0c:	e8 37 df ff ff       	callq  400c48 <_init>
  402d11:	48 c1 fd 03          	sar    $0x3,%rbp
  402d15:	74 1f                	je     402d36 <__libc_csu_init+0x56>
  402d17:	31 db                	xor    %ebx,%ebx
  402d19:	0f 1f 80 00 00 00 00 	nopl   0x0(%rax)
  402d20:	4c 89 fa             	mov    %r15,%rdx
  402d23:	4c 89 f6             	mov    %r14,%rsi
  402d26:	44 89 ef             	mov    %r13d,%edi
  402d29:	41 ff 14 dc          	callq  *(%r12,%rbx,8)
  402d2d:	48 83 c3 01          	add    $0x1,%rbx
  402d31:	48 39 dd             	cmp    %rbx,%rbp
  402d34:	75 ea                	jne    402d20 <__libc_csu_init+0x40>
  402d36:	48 83 c4 08          	add    $0x8,%rsp
  402d3a:	5b                   	pop    %rbx
  402d3b:	5d                   	pop    %rbp
  402d3c:	41 5c                	pop    %r12
  402d3e:	41 5d                	pop    %r13
  402d40:	41 5e                	pop    %r14
  402d42:	41 5f                	pop    %r15
  402d44:	c3                   	retq   

0000000000402d45 <.annobin___libc_csu_fini.start>:
  402d45:	90                   	nop
  402d46:	66 2e 0f 1f 84 00 00 	nopw   %cs:0x0(%rax,%rax,1)
  402d4d:	00 00 00 

0000000000402d50 <__libc_csu_fini>:
  402d50:	f3 0f 1e fa          	endbr64 
  402d54:	c3                   	retq   

Disassembly of section .fini:

0000000000402d58 <_fini>:
  402d58:	f3 0f 1e fa          	endbr64 
  402d5c:	48 83 ec 08          	sub    $0x8,%rsp
  402d60:	48 83 c4 08          	add    $0x8,%rsp
  402d64:	c3                   	retq   
